Archive member included to satisfy reference by file (symbol)

c:/siliconlabs/simplicitystudio/v5/developer/toolchains/gnu_arm/12.2.rel1_2023.7/bin/../lib/gcc/arm-none-eabi/12.2.1/thumb/v8-m.main+fp/hard\libgcc.a(_aeabi_ldivmod.o)
                              ./gecko_sdk_4.4.1/platform/emlib/src/em_eusart.o (__aeabi_ldivmod)
c:/siliconlabs/simplicitystudio/v5/developer/toolchains/gnu_arm/12.2.rel1_2023.7/bin/../lib/gcc/arm-none-eabi/12.2.1/thumb/v8-m.main+fp/hard\libgcc.a(_aeabi_uldivmod.o)
                              ./gecko_sdk_4.4.1/platform/emlib/src/em_eusart.o (__aeabi_uldivmod)
c:/siliconlabs/simplicitystudio/v5/developer/toolchains/gnu_arm/12.2.rel1_2023.7/bin/../lib/gcc/arm-none-eabi/12.2.1/thumb/v8-m.main+fp/hard\libgcc.a(_udivmoddi4.o)
                              c:/siliconlabs/simplicitystudio/v5/developer/toolchains/gnu_arm/12.2.rel1_2023.7/bin/../lib/gcc/arm-none-eabi/12.2.1/thumb/v8-m.main+fp/hard\libgcc.a(_aeabi_ldivmod.o) (__udivmoddi4)
c:/siliconlabs/simplicitystudio/v5/developer/toolchains/gnu_arm/12.2.rel1_2023.7/bin/../lib/gcc/arm-none-eabi/12.2.1/thumb/v8-m.main+fp/hard\libgcc.a(_dvmd_tls.o)
                              c:/siliconlabs/simplicitystudio/v5/developer/toolchains/gnu_arm/12.2.rel1_2023.7/bin/../lib/gcc/arm-none-eabi/12.2.1/thumb/v8-m.main+fp/hard\libgcc.a(_aeabi_ldivmod.o) (__aeabi_ldiv0)
c:/siliconlabs/simplicitystudio/v5/developer/toolchains/gnu_arm/12.2.rel1_2023.7/bin/../lib/gcc/arm-none-eabi/12.2.1/thumb/v8-m.main+fp/hard\libc_nano.a(libc_a-exit.o)
                              c:/siliconlabs/simplicitystudio/v5/developer/toolchains/gnu_arm/12.2.rel1_2023.7/bin/../lib/gcc/arm-none-eabi/12.2.1/thumb/v8-m.main+fp/hard/crt0.o (exit)
c:/siliconlabs/simplicitystudio/v5/developer/toolchains/gnu_arm/12.2.rel1_2023.7/bin/../lib/gcc/arm-none-eabi/12.2.1/thumb/v8-m.main+fp/hard\libc_nano.a(libc_a-ctype_.o)
                              ./gecko_sdk_4.4.1/platform/common/src/sl_string.o (_ctype_)
c:/siliconlabs/simplicitystudio/v5/developer/toolchains/gnu_arm/12.2.rel1_2023.7/bin/../lib/gcc/arm-none-eabi/12.2.1/thumb/v8-m.main+fp/hard\libc_nano.a(libc_a-findfp.o)
                              c:/siliconlabs/simplicitystudio/v5/developer/toolchains/gnu_arm/12.2.rel1_2023.7/bin/../lib/gcc/arm-none-eabi/12.2.1/thumb/v8-m.main+fp/hard\libc_nano.a(libc_a-exit.o) (__stdio_exit_handler)
c:/siliconlabs/simplicitystudio/v5/developer/toolchains/gnu_arm/12.2.rel1_2023.7/bin/../lib/gcc/arm-none-eabi/12.2.1/thumb/v8-m.main+fp/hard\libc_nano.a(libc_a-fwalk.o)
                              c:/siliconlabs/simplicitystudio/v5/developer/toolchains/gnu_arm/12.2.rel1_2023.7/bin/../lib/gcc/arm-none-eabi/12.2.1/thumb/v8-m.main+fp/hard\libc_nano.a(libc_a-findfp.o) (_fwalk_sglue)
c:/siliconlabs/simplicitystudio/v5/developer/toolchains/gnu_arm/12.2.rel1_2023.7/bin/../lib/gcc/arm-none-eabi/12.2.1/thumb/v8-m.main+fp/hard\libc_nano.a(libc_a-printf.o)
                              ./as.o (printf)
c:/siliconlabs/simplicitystudio/v5/developer/toolchains/gnu_arm/12.2.rel1_2023.7/bin/../lib/gcc/arm-none-eabi/12.2.1/thumb/v8-m.main+fp/hard\libc_nano.a(libc_a-puts.o)
                              ./app.o (puts)
c:/siliconlabs/simplicitystudio/v5/developer/toolchains/gnu_arm/12.2.rel1_2023.7/bin/../lib/gcc/arm-none-eabi/12.2.1/thumb/v8-m.main+fp/hard\libc_nano.a(libc_a-setvbuf.o)
                              ./gecko_sdk_4.4.1/platform/service/iostream/src/sl_iostream_stdlib_config.o (setvbuf)
c:/siliconlabs/simplicitystudio/v5/developer/toolchains/gnu_arm/12.2.rel1_2023.7/bin/../lib/gcc/arm-none-eabi/12.2.1/thumb/v8-m.main+fp/hard\libc_nano.a(libc_a-stdio.o)
                              c:/siliconlabs/simplicitystudio/v5/developer/toolchains/gnu_arm/12.2.rel1_2023.7/bin/../lib/gcc/arm-none-eabi/12.2.1/thumb/v8-m.main+fp/hard\libc_nano.a(libc_a-findfp.o) (__sread)
c:/siliconlabs/simplicitystudio/v5/developer/toolchains/gnu_arm/12.2.rel1_2023.7/bin/../lib/gcc/arm-none-eabi/12.2.1/thumb/v8-m.main+fp/hard\libc_nano.a(libc_a-vprintf.o)
                              ./gecko_sdk_4.4.1/platform/service/iostream/src/sl_iostream.o (vprintf)
c:/siliconlabs/simplicitystudio/v5/developer/toolchains/gnu_arm/12.2.rel1_2023.7/bin/../lib/gcc/arm-none-eabi/12.2.1/thumb/v8-m.main+fp/hard\libc_nano.a(libc_a-wbuf.o)
                              c:/siliconlabs/simplicitystudio/v5/developer/toolchains/gnu_arm/12.2.rel1_2023.7/bin/../lib/gcc/arm-none-eabi/12.2.1/thumb/v8-m.main+fp/hard\libc_nano.a(libc_a-puts.o) (__swbuf_r)
c:/siliconlabs/simplicitystudio/v5/developer/toolchains/gnu_arm/12.2.rel1_2023.7/bin/../lib/gcc/arm-none-eabi/12.2.1/thumb/v8-m.main+fp/hard\libc_nano.a(libc_a-wsetup.o)
                              c:/siliconlabs/simplicitystudio/v5/developer/toolchains/gnu_arm/12.2.rel1_2023.7/bin/../lib/gcc/arm-none-eabi/12.2.1/thumb/v8-m.main+fp/hard\libc_nano.a(libc_a-puts.o) (__swsetup_r)
c:/siliconlabs/simplicitystudio/v5/developer/toolchains/gnu_arm/12.2.rel1_2023.7/bin/../lib/gcc/arm-none-eabi/12.2.1/thumb/v8-m.main+fp/hard\libc_nano.a(libc_a-memset.o)
                              c:/siliconlabs/simplicitystudio/v5/developer/toolchains/gnu_arm/12.2.rel1_2023.7/bin/../lib/gcc/arm-none-eabi/12.2.1/thumb/v8-m.main+fp/hard/crt0.o (memset)
c:/siliconlabs/simplicitystudio/v5/developer/toolchains/gnu_arm/12.2.rel1_2023.7/bin/../lib/gcc/arm-none-eabi/12.2.1/thumb/v8-m.main+fp/hard\libc_nano.a(libc_a-closer.o)
                              c:/siliconlabs/simplicitystudio/v5/developer/toolchains/gnu_arm/12.2.rel1_2023.7/bin/../lib/gcc/arm-none-eabi/12.2.1/thumb/v8-m.main+fp/hard\libc_nano.a(libc_a-stdio.o) (_close_r)
c:/siliconlabs/simplicitystudio/v5/developer/toolchains/gnu_arm/12.2.rel1_2023.7/bin/../lib/gcc/arm-none-eabi/12.2.1/thumb/v8-m.main+fp/hard\libc_nano.a(libc_a-reent.o)
                              c:/siliconlabs/simplicitystudio/v5/developer/toolchains/gnu_arm/12.2.rel1_2023.7/bin/../lib/gcc/arm-none-eabi/12.2.1/thumb/v8-m.main+fp/hard\libc_nano.a(libc_a-closer.o) (errno)
c:/siliconlabs/simplicitystudio/v5/developer/toolchains/gnu_arm/12.2.rel1_2023.7/bin/../lib/gcc/arm-none-eabi/12.2.1/thumb/v8-m.main+fp/hard\libc_nano.a(libc_a-impure.o)
                              ./gecko_sdk_4.4.1/platform/service/iostream/src/sl_iostream_stdlib_config.o (_impure_ptr)
c:/siliconlabs/simplicitystudio/v5/developer/toolchains/gnu_arm/12.2.rel1_2023.7/bin/../lib/gcc/arm-none-eabi/12.2.1/thumb/v8-m.main+fp/hard\libc_nano.a(libc_a-lseekr.o)
                              c:/siliconlabs/simplicitystudio/v5/developer/toolchains/gnu_arm/12.2.rel1_2023.7/bin/../lib/gcc/arm-none-eabi/12.2.1/thumb/v8-m.main+fp/hard\libc_nano.a(libc_a-stdio.o) (_lseek_r)
c:/siliconlabs/simplicitystudio/v5/developer/toolchains/gnu_arm/12.2.rel1_2023.7/bin/../lib/gcc/arm-none-eabi/12.2.1/thumb/v8-m.main+fp/hard\libc_nano.a(libc_a-readr.o)
                              c:/siliconlabs/simplicitystudio/v5/developer/toolchains/gnu_arm/12.2.rel1_2023.7/bin/../lib/gcc/arm-none-eabi/12.2.1/thumb/v8-m.main+fp/hard\libc_nano.a(libc_a-stdio.o) (_read_r)
c:/siliconlabs/simplicitystudio/v5/developer/toolchains/gnu_arm/12.2.rel1_2023.7/bin/../lib/gcc/arm-none-eabi/12.2.1/thumb/v8-m.main+fp/hard\libc_nano.a(libc_a-writer.o)
                              c:/siliconlabs/simplicitystudio/v5/developer/toolchains/gnu_arm/12.2.rel1_2023.7/bin/../lib/gcc/arm-none-eabi/12.2.1/thumb/v8-m.main+fp/hard\libc_nano.a(libc_a-stdio.o) (_write_r)
c:/siliconlabs/simplicitystudio/v5/developer/toolchains/gnu_arm/12.2.rel1_2023.7/bin/../lib/gcc/arm-none-eabi/12.2.1/thumb/v8-m.main+fp/hard\libc_nano.a(libc_a-init.o)
                              c:/siliconlabs/simplicitystudio/v5/developer/toolchains/gnu_arm/12.2.rel1_2023.7/bin/../lib/gcc/arm-none-eabi/12.2.1/thumb/v8-m.main+fp/hard/crt0.o (__libc_init_array)
c:/siliconlabs/simplicitystudio/v5/developer/toolchains/gnu_arm/12.2.rel1_2023.7/bin/../lib/gcc/arm-none-eabi/12.2.1/thumb/v8-m.main+fp/hard\libc_nano.a(libc_a-lock.o)
                              c:/siliconlabs/simplicitystudio/v5/developer/toolchains/gnu_arm/12.2.rel1_2023.7/bin/../lib/gcc/arm-none-eabi/12.2.1/thumb/v8-m.main+fp/hard\libc_nano.a(libc_a-findfp.o) (__retarget_lock_init_recursive)
c:/siliconlabs/simplicitystudio/v5/developer/toolchains/gnu_arm/12.2.rel1_2023.7/bin/../lib/gcc/arm-none-eabi/12.2.1/thumb/v8-m.main+fp/hard\libc_nano.a(libc_a-strcmp.o)
                              ./autogen/sl_iostream_handles.o (strcmp)
c:/siliconlabs/simplicitystudio/v5/developer/toolchains/gnu_arm/12.2.rel1_2023.7/bin/../lib/gcc/arm-none-eabi/12.2.1/thumb/v8-m.main+fp/hard\libc_nano.a(libc_a-memcpy-stub.o)
                              ./gecko_sdk_4.4.1/platform/service/iostream/src/sl_iostream_uart.o (memcpy)
c:/siliconlabs/simplicitystudio/v5/developer/toolchains/gnu_arm/12.2.rel1_2023.7/bin/../lib/gcc/arm-none-eabi/12.2.1/thumb/v8-m.main+fp/hard\libc_nano.a(libc_a-freer.o)
                              c:/siliconlabs/simplicitystudio/v5/developer/toolchains/gnu_arm/12.2.rel1_2023.7/bin/../lib/gcc/arm-none-eabi/12.2.1/thumb/v8-m.main+fp/hard\libc_nano.a(libc_a-setvbuf.o) (_free_r)
c:/siliconlabs/simplicitystudio/v5/developer/toolchains/gnu_arm/12.2.rel1_2023.7/bin/../lib/gcc/arm-none-eabi/12.2.1/thumb/v8-m.main+fp/hard\libc_nano.a(libc_a-malloc.o)
                              c:/siliconlabs/simplicitystudio/v5/developer/toolchains/gnu_arm/12.2.rel1_2023.7/bin/../lib/gcc/arm-none-eabi/12.2.1/thumb/v8-m.main+fp/hard\libc_nano.a(libc_a-setvbuf.o) (malloc)
c:/siliconlabs/simplicitystudio/v5/developer/toolchains/gnu_arm/12.2.rel1_2023.7/bin/../lib/gcc/arm-none-eabi/12.2.1/thumb/v8-m.main+fp/hard\libc_nano.a(libc_a-mallocr.o)
                              c:/siliconlabs/simplicitystudio/v5/developer/toolchains/gnu_arm/12.2.rel1_2023.7/bin/../lib/gcc/arm-none-eabi/12.2.1/thumb/v8-m.main+fp/hard\libc_nano.a(libc_a-findfp.o) (_malloc_r)
c:/siliconlabs/simplicitystudio/v5/developer/toolchains/gnu_arm/12.2.rel1_2023.7/bin/../lib/gcc/arm-none-eabi/12.2.1/thumb/v8-m.main+fp/hard\libc_nano.a(libc_a-mlock.o)
                              c:/siliconlabs/simplicitystudio/v5/developer/toolchains/gnu_arm/12.2.rel1_2023.7/bin/../lib/gcc/arm-none-eabi/12.2.1/thumb/v8-m.main+fp/hard\libc_nano.a(libc_a-freer.o) (__malloc_lock)
c:/siliconlabs/simplicitystudio/v5/developer/toolchains/gnu_arm/12.2.rel1_2023.7/bin/../lib/gcc/arm-none-eabi/12.2.1/thumb/v8-m.main+fp/hard\libc_nano.a(libc_a-nano-vfprintf.o)
                              c:/siliconlabs/simplicitystudio/v5/developer/toolchains/gnu_arm/12.2.rel1_2023.7/bin/../lib/gcc/arm-none-eabi/12.2.1/thumb/v8-m.main+fp/hard\libc_nano.a(libc_a-printf.o) (_vfprintf_r)
c:/siliconlabs/simplicitystudio/v5/developer/toolchains/gnu_arm/12.2.rel1_2023.7/bin/../lib/gcc/arm-none-eabi/12.2.1/thumb/v8-m.main+fp/hard\libc_nano.a(libc_a-nano-vfprintf_i.o)
                              c:/siliconlabs/simplicitystudio/v5/developer/toolchains/gnu_arm/12.2.rel1_2023.7/bin/../lib/gcc/arm-none-eabi/12.2.1/thumb/v8-m.main+fp/hard\libc_nano.a(libc_a-nano-vfprintf.o) (_printf_i)
c:/siliconlabs/simplicitystudio/v5/developer/toolchains/gnu_arm/12.2.rel1_2023.7/bin/../lib/gcc/arm-none-eabi/12.2.1/thumb/v8-m.main+fp/hard\libc_nano.a(libc_a-fflush.o)
                              c:/siliconlabs/simplicitystudio/v5/developer/toolchains/gnu_arm/12.2.rel1_2023.7/bin/../lib/gcc/arm-none-eabi/12.2.1/thumb/v8-m.main+fp/hard\libc_nano.a(libc_a-findfp.o) (_fflush_r)
c:/siliconlabs/simplicitystudio/v5/developer/toolchains/gnu_arm/12.2.rel1_2023.7/bin/../lib/gcc/arm-none-eabi/12.2.1/thumb/v8-m.main+fp/hard\libc_nano.a(libc_a-fvwrite.o)
                              c:/siliconlabs/simplicitystudio/v5/developer/toolchains/gnu_arm/12.2.rel1_2023.7/bin/../lib/gcc/arm-none-eabi/12.2.1/thumb/v8-m.main+fp/hard\libc_nano.a(libc_a-nano-vfprintf.o) (__sfvwrite_r)
c:/siliconlabs/simplicitystudio/v5/developer/toolchains/gnu_arm/12.2.rel1_2023.7/bin/../lib/gcc/arm-none-eabi/12.2.1/thumb/v8-m.main+fp/hard\libc_nano.a(libc_a-makebuf.o)
                              c:/siliconlabs/simplicitystudio/v5/developer/toolchains/gnu_arm/12.2.rel1_2023.7/bin/../lib/gcc/arm-none-eabi/12.2.1/thumb/v8-m.main+fp/hard\libc_nano.a(libc_a-setvbuf.o) (__swhatbuf_r)
c:/siliconlabs/simplicitystudio/v5/developer/toolchains/gnu_arm/12.2.rel1_2023.7/bin/../lib/gcc/arm-none-eabi/12.2.1/thumb/v8-m.main+fp/hard\libc_nano.a(libc_a-memmove.o)
                              c:/siliconlabs/simplicitystudio/v5/developer/toolchains/gnu_arm/12.2.rel1_2023.7/bin/../lib/gcc/arm-none-eabi/12.2.1/thumb/v8-m.main+fp/hard\libc_nano.a(libc_a-fvwrite.o) (memmove)
c:/siliconlabs/simplicitystudio/v5/developer/toolchains/gnu_arm/12.2.rel1_2023.7/bin/../lib/gcc/arm-none-eabi/12.2.1/thumb/v8-m.main+fp/hard\libc_nano.a(libc_a-fstatr.o)
                              c:/siliconlabs/simplicitystudio/v5/developer/toolchains/gnu_arm/12.2.rel1_2023.7/bin/../lib/gcc/arm-none-eabi/12.2.1/thumb/v8-m.main+fp/hard\libc_nano.a(libc_a-makebuf.o) (_fstat_r)
c:/siliconlabs/simplicitystudio/v5/developer/toolchains/gnu_arm/12.2.rel1_2023.7/bin/../lib/gcc/arm-none-eabi/12.2.1/thumb/v8-m.main+fp/hard\libc_nano.a(libc_a-isattyr.o)
                              c:/siliconlabs/simplicitystudio/v5/developer/toolchains/gnu_arm/12.2.rel1_2023.7/bin/../lib/gcc/arm-none-eabi/12.2.1/thumb/v8-m.main+fp/hard\libc_nano.a(libc_a-makebuf.o) (_isatty_r)
c:/siliconlabs/simplicitystudio/v5/developer/toolchains/gnu_arm/12.2.rel1_2023.7/bin/../lib/gcc/arm-none-eabi/12.2.1/thumb/v8-m.main+fp/hard\libc_nano.a(libc_a-sbrkr.o)
                              c:/siliconlabs/simplicitystudio/v5/developer/toolchains/gnu_arm/12.2.rel1_2023.7/bin/../lib/gcc/arm-none-eabi/12.2.1/thumb/v8-m.main+fp/hard\libc_nano.a(libc_a-mallocr.o) (_sbrk_r)
c:/siliconlabs/simplicitystudio/v5/developer/toolchains/gnu_arm/12.2.rel1_2023.7/bin/../lib/gcc/arm-none-eabi/12.2.1/thumb/v8-m.main+fp/hard\libc_nano.a(libc_a-memchr-stub.o)
                              c:/siliconlabs/simplicitystudio/v5/developer/toolchains/gnu_arm/12.2.rel1_2023.7/bin/../lib/gcc/arm-none-eabi/12.2.1/thumb/v8-m.main+fp/hard\libc_nano.a(libc_a-nano-vfprintf.o) (memchr)
c:/siliconlabs/simplicitystudio/v5/developer/toolchains/gnu_arm/12.2.rel1_2023.7/bin/../lib/gcc/arm-none-eabi/12.2.1/thumb/v8-m.main+fp/hard\libc_nano.a(libc_a-reallocr.o)
                              c:/siliconlabs/simplicitystudio/v5/developer/toolchains/gnu_arm/12.2.rel1_2023.7/bin/../lib/gcc/arm-none-eabi/12.2.1/thumb/v8-m.main+fp/hard\libc_nano.a(libc_a-fvwrite.o) (_realloc_r)
c:/siliconlabs/simplicitystudio/v5/developer/toolchains/gnu_arm/12.2.rel1_2023.7/bin/../lib/gcc/arm-none-eabi/12.2.1/thumb/v8-m.main+fp/hard\libc_nano.a(libc_a-msizer.o)
                              c:/siliconlabs/simplicitystudio/v5/developer/toolchains/gnu_arm/12.2.rel1_2023.7/bin/../lib/gcc/arm-none-eabi/12.2.1/thumb/v8-m.main+fp/hard\libc_nano.a(libc_a-reallocr.o) (_malloc_usable_size_r)

Discarded input sections

 .text          0x00000000        0x0 c:/siliconlabs/simplicitystudio/v5/developer/toolchains/gnu_arm/12.2.rel1_2023.7/bin/../lib/gcc/arm-none-eabi/12.2.1/thumb/v8-m.main+fp/hard/crti.o
 .data          0x00000000        0x0 c:/siliconlabs/simplicitystudio/v5/developer/toolchains/gnu_arm/12.2.rel1_2023.7/bin/../lib/gcc/arm-none-eabi/12.2.1/thumb/v8-m.main+fp/hard/crti.o
 .bss           0x00000000        0x0 c:/siliconlabs/simplicitystudio/v5/developer/toolchains/gnu_arm/12.2.rel1_2023.7/bin/../lib/gcc/arm-none-eabi/12.2.1/thumb/v8-m.main+fp/hard/crti.o
 .text          0x00000000        0x0 c:/siliconlabs/simplicitystudio/v5/developer/toolchains/gnu_arm/12.2.rel1_2023.7/bin/../lib/gcc/arm-none-eabi/12.2.1/thumb/v8-m.main+fp/hard/crtbegin.o
 .data          0x00000000        0x0 c:/siliconlabs/simplicitystudio/v5/developer/toolchains/gnu_arm/12.2.rel1_2023.7/bin/../lib/gcc/arm-none-eabi/12.2.1/thumb/v8-m.main+fp/hard/crtbegin.o
 .bss           0x00000000        0x0 c:/siliconlabs/simplicitystudio/v5/developer/toolchains/gnu_arm/12.2.rel1_2023.7/bin/../lib/gcc/arm-none-eabi/12.2.1/thumb/v8-m.main+fp/hard/crtbegin.o
 .rodata.all_implied_fbits
                0x00000000       0x24 c:/siliconlabs/simplicitystudio/v5/developer/toolchains/gnu_arm/12.2.rel1_2023.7/bin/../lib/gcc/arm-none-eabi/12.2.1/thumb/v8-m.main+fp/hard/crtbegin.o
 .data.__dso_handle
                0x00000000        0x4 c:/siliconlabs/simplicitystudio/v5/developer/toolchains/gnu_arm/12.2.rel1_2023.7/bin/../lib/gcc/arm-none-eabi/12.2.1/thumb/v8-m.main+fp/hard/crtbegin.o
 .data          0x00000000        0x0 c:/siliconlabs/simplicitystudio/v5/developer/toolchains/gnu_arm/12.2.rel1_2023.7/bin/../lib/gcc/arm-none-eabi/12.2.1/thumb/v8-m.main+fp/hard/crt0.o
 .bss           0x00000000        0x0 c:/siliconlabs/simplicitystudio/v5/developer/toolchains/gnu_arm/12.2.rel1_2023.7/bin/../lib/gcc/arm-none-eabi/12.2.1/thumb/v8-m.main+fp/hard/crt0.o
 .ARM.extab     0x00000000        0x0 c:/siliconlabs/simplicitystudio/v5/developer/toolchains/gnu_arm/12.2.rel1_2023.7/bin/../lib/gcc/arm-none-eabi/12.2.1/thumb/v8-m.main+fp/hard/crt0.o
 .text          0x00000000        0x0 ./app.o
 .data          0x00000000        0x0 ./app.o
 .bss           0x00000000        0x0 ./app.o
 .text          0x00000000        0x0 ./as.o
 .data          0x00000000        0x0 ./as.o
 .bss           0x00000000        0x0 ./as.o
 .text.as_process_action
                0x00000000        0x2 ./as.o
 .text          0x00000000        0x0 ./main.o
 .data          0x00000000        0x0 ./main.o
 .bss           0x00000000        0x0 ./main.o
 .text          0x00000000        0x0 ./mpl.o
 .data          0x00000000        0x0 ./mpl.o
 .bss           0x00000000        0x0 ./mpl.o
 .text.mpl_process_action
                0x00000000        0x2 ./mpl.o
 .text          0x00000000        0x0 ./si.o
 .data          0x00000000        0x0 ./si.o
 .bss           0x00000000        0x0 ./si.o
 .rodata.set_leds.str1.1
                0x00000000       0x24 ./si.o
 .text.set_leds
                0x00000000       0x54 ./si.o
 .rodata.i2cspm_app_process_action.str1.1
                0x00000000       0x34 ./si.o
 .text.i2cspm_app_process_action
                0x00000000       0x4c ./si.o
 .bss.temperature
                0x00000000        0x4 ./si.o
 .text          0x00000000        0x0 ./autogen/sl_board_default_init.o
 .data          0x00000000        0x0 ./autogen/sl_board_default_init.o
 .bss           0x00000000        0x0 ./autogen/sl_board_default_init.o
 .text          0x00000000        0x0 ./autogen/sl_device_init_clocks.o
 .data          0x00000000        0x0 ./autogen/sl_device_init_clocks.o
 .bss           0x00000000        0x0 ./autogen/sl_device_init_clocks.o
 .text          0x00000000        0x0 ./autogen/sl_event_handler.o
 .data          0x00000000        0x0 ./autogen/sl_event_handler.o
 .bss           0x00000000        0x0 ./autogen/sl_event_handler.o
 .text.sl_iostream_init_instances
                0x00000000        0x4 ./autogen/sl_event_handler.o
 .text          0x00000000        0x0 ./autogen/sl_i2cspm_init.o
 .data          0x00000000        0x0 ./autogen/sl_i2cspm_init.o
 .bss           0x00000000        0x0 ./autogen/sl_i2cspm_init.o
 .text          0x00000000        0x0 ./autogen/sl_iostream_handles.o
 .data          0x00000000        0x0 ./autogen/sl_iostream_handles.o
 .bss           0x00000000        0x0 ./autogen/sl_iostream_handles.o
 .text.sl_iostream_get_handle
                0x00000000       0x1c ./autogen/sl_iostream_handles.o
 .rodata.sl_iostream_instances_count
                0x00000000        0x4 ./autogen/sl_iostream_handles.o
 .data.sl_iostream_instances_info
                0x00000000        0x4 ./autogen/sl_iostream_handles.o
 .debug_info    0x00000000      0x2fb ./autogen/sl_iostream_handles.o
 .debug_abbrev  0x00000000      0x180 ./autogen/sl_iostream_handles.o
 .debug_loc     0x00000000       0x76 ./autogen/sl_iostream_handles.o
 .debug_aranges
                0x00000000       0x20 ./autogen/sl_iostream_handles.o
 .debug_ranges  0x00000000       0x30 ./autogen/sl_iostream_handles.o
 .debug_line    0x00000000      0x3fc ./autogen/sl_iostream_handles.o
 .debug_str     0x00000000      0x319 ./autogen/sl_iostream_handles.o
 .comment       0x00000000       0x46 ./autogen/sl_iostream_handles.o
 .debug_frame   0x00000000       0x28 ./autogen/sl_iostream_handles.o
 .ARM.attributes
                0x00000000       0x3a ./autogen/sl_iostream_handles.o
 .text          0x00000000        0x0 ./autogen/sl_iostream_init_eusart_instances.o
 .data          0x00000000        0x0 ./autogen/sl_iostream_init_eusart_instances.o
 .bss           0x00000000        0x0 ./autogen/sl_iostream_init_eusart_instances.o
 .rodata.str1.1
                0x00000000        0x5 ./autogen/sl_iostream_init_eusart_instances.o
 .data.sl_iostream_instance_vcom_info
                0x00000000       0x10 ./autogen/sl_iostream_init_eusart_instances.o
 .data.sl_iostream_uart_vcom_handle
                0x00000000        0x4 ./autogen/sl_iostream_init_eusart_instances.o
 .data.sl_iostream_vcom_handle
                0x00000000        0x4 ./autogen/sl_iostream_init_eusart_instances.o
 .text          0x00000000        0x0 ./autogen/sl_simple_led_instances.o
 .data          0x00000000        0x0 ./autogen/sl_simple_led_instances.o
 .bss           0x00000000        0x0 ./autogen/sl_simple_led_instances.o
 .data.sl_simple_led_array
                0x00000000        0x8 ./autogen/sl_simple_led_instances.o
 .text          0x00000000        0x0 ./gecko_sdk_4.4.1/hardware/board/src/sl_board_control_gpio.o
 .data          0x00000000        0x0 ./gecko_sdk_4.4.1/hardware/board/src/sl_board_control_gpio.o
 .bss           0x00000000        0x0 ./gecko_sdk_4.4.1/hardware/board/src/sl_board_control_gpio.o
 .text.sl_board_enable_display
                0x00000000       0x12 ./gecko_sdk_4.4.1/hardware/board/src/sl_board_control_gpio.o
 .text.sl_board_disable_display
                0x00000000       0x12 ./gecko_sdk_4.4.1/hardware/board/src/sl_board_control_gpio.o
 .text.sl_board_disable_sensor
                0x00000000       0x6c ./gecko_sdk_4.4.1/hardware/board/src/sl_board_control_gpio.o
 .text.sl_board_enable_memory
                0x00000000       0x28 ./gecko_sdk_4.4.1/hardware/board/src/sl_board_control_gpio.o
 .text.sl_board_disable_memory
                0x00000000       0x28 ./gecko_sdk_4.4.1/hardware/board/src/sl_board_control_gpio.o
 .text.sl_board_enable_oscillator
                0x00000000       0x1c ./gecko_sdk_4.4.1/hardware/board/src/sl_board_control_gpio.o
 .text.sl_board_disable_oscillator
                0x00000000       0x1c ./gecko_sdk_4.4.1/hardware/board/src/sl_board_control_gpio.o
 .text          0x00000000        0x0 ./gecko_sdk_4.4.1/hardware/board/src/sl_board_init.o
 .data          0x00000000        0x0 ./gecko_sdk_4.4.1/hardware/board/src/sl_board_init.o
 .bss           0x00000000        0x0 ./gecko_sdk_4.4.1/hardware/board/src/sl_board_init.o
 .text          0x00000000        0x0 ./gecko_sdk_4.4.1/hardware/driver/configuration_over_swo/src/sl_cos.o
 .data          0x00000000        0x0 ./gecko_sdk_4.4.1/hardware/driver/configuration_over_swo/src/sl_cos.o
 .bss           0x00000000        0x0 ./gecko_sdk_4.4.1/hardware/driver/configuration_over_swo/src/sl_cos.o
 .text.sl_cos_config_pti
                0x00000000       0x26 ./gecko_sdk_4.4.1/hardware/driver/configuration_over_swo/src/sl_cos.o
 .text          0x00000000        0x0 ./gecko_sdk_4.4.1/hardware/driver/mx25_flash_shutdown/src/sl_mx25_flash_shutdown_usart/sl_mx25_flash_shutdown.o
 .data          0x00000000        0x0 ./gecko_sdk_4.4.1/hardware/driver/mx25_flash_shutdown/src/sl_mx25_flash_shutdown_usart/sl_mx25_flash_shutdown.o
 .bss           0x00000000        0x0 ./gecko_sdk_4.4.1/hardware/driver/mx25_flash_shutdown/src/sl_mx25_flash_shutdown_usart/sl_mx25_flash_shutdown.o
 .text          0x00000000        0x0 ./gecko_sdk_4.4.1/platform/Device/SiliconLabs/EFR32MG24/Source/startup_efr32mg24.o
 .data          0x00000000        0x0 ./gecko_sdk_4.4.1/platform/Device/SiliconLabs/EFR32MG24/Source/startup_efr32mg24.o
 .bss           0x00000000        0x0 ./gecko_sdk_4.4.1/platform/Device/SiliconLabs/EFR32MG24/Source/startup_efr32mg24.o
 .text          0x00000000        0x0 ./gecko_sdk_4.4.1/platform/Device/SiliconLabs/EFR32MG24/Source/system_efr32mg24.o
 .data          0x00000000        0x0 ./gecko_sdk_4.4.1/platform/Device/SiliconLabs/EFR32MG24/Source/system_efr32mg24.o
 .bss           0x00000000        0x0 ./gecko_sdk_4.4.1/platform/Device/SiliconLabs/EFR32MG24/Source/system_efr32mg24.o
 .text.SystemHFRCODPLLClockSet
                0x00000000        0xc ./gecko_sdk_4.4.1/platform/Device/SiliconLabs/EFR32MG24/Source/system_efr32mg24.o
 .text.SystemLFXOClockSet
                0x00000000        0xc ./gecko_sdk_4.4.1/platform/Device/SiliconLabs/EFR32MG24/Source/system_efr32mg24.o
 .text          0x00000000        0x0 ./gecko_sdk_4.4.1/platform/common/src/sl_assert.o
 .data          0x00000000        0x0 ./gecko_sdk_4.4.1/platform/common/src/sl_assert.o
 .bss           0x00000000        0x0 ./gecko_sdk_4.4.1/platform/common/src/sl_assert.o
 .text          0x00000000        0x0 ./gecko_sdk_4.4.1/platform/common/src/sl_slist.o
 .data          0x00000000        0x0 ./gecko_sdk_4.4.1/platform/common/src/sl_slist.o
 .bss           0x00000000        0x0 ./gecko_sdk_4.4.1/platform/common/src/sl_slist.o
 .text.sl_slist_init
                0x00000000        0x6 ./gecko_sdk_4.4.1/platform/common/src/sl_slist.o
 .rodata.sl_slist_push.str1.1
                0x00000000       0x32 ./gecko_sdk_4.4.1/platform/common/src/sl_slist.o
 .text.sl_slist_push
                0x00000000       0x20 ./gecko_sdk_4.4.1/platform/common/src/sl_slist.o
 .text.sl_slist_push_back
                0x00000000       0x24 ./gecko_sdk_4.4.1/platform/common/src/sl_slist.o
 .text.sl_slist_pop
                0x00000000       0x20 ./gecko_sdk_4.4.1/platform/common/src/sl_slist.o
 .text.sl_slist_insert
                0x00000000       0x20 ./gecko_sdk_4.4.1/platform/common/src/sl_slist.o
 .text.sl_slist_remove
                0x00000000       0x28 ./gecko_sdk_4.4.1/platform/common/src/sl_slist.o
 .text.sl_slist_sort
                0x00000000       0x50 ./gecko_sdk_4.4.1/platform/common/src/sl_slist.o
 .debug_info    0x00000000      0x3fa ./gecko_sdk_4.4.1/platform/common/src/sl_slist.o
 .debug_abbrev  0x00000000      0x169 ./gecko_sdk_4.4.1/platform/common/src/sl_slist.o
 .debug_loc     0x00000000      0x3c3 ./gecko_sdk_4.4.1/platform/common/src/sl_slist.o
 .debug_aranges
                0x00000000       0x50 ./gecko_sdk_4.4.1/platform/common/src/sl_slist.o
 .debug_ranges  0x00000000       0x58 ./gecko_sdk_4.4.1/platform/common/src/sl_slist.o
 .debug_line    0x00000000      0x347 ./gecko_sdk_4.4.1/platform/common/src/sl_slist.o
 .debug_str     0x00000000      0x2b6 ./gecko_sdk_4.4.1/platform/common/src/sl_slist.o
 .comment       0x00000000       0x46 ./gecko_sdk_4.4.1/platform/common/src/sl_slist.o
 .debug_frame   0x00000000       0xc8 ./gecko_sdk_4.4.1/platform/common/src/sl_slist.o
 .ARM.attributes
                0x00000000       0x3a ./gecko_sdk_4.4.1/platform/common/src/sl_slist.o
 .text          0x00000000        0x0 ./gecko_sdk_4.4.1/platform/common/src/sl_string.o
 .data          0x00000000        0x0 ./gecko_sdk_4.4.1/platform/common/src/sl_string.o
 .bss           0x00000000        0x0 ./gecko_sdk_4.4.1/platform/common/src/sl_string.o
 .text.sl_strcpy_s
                0x00000000       0x22 ./gecko_sdk_4.4.1/platform/common/src/sl_string.o
 .text.sl_strnlen
                0x00000000       0x16 ./gecko_sdk_4.4.1/platform/common/src/sl_string.o
 .text.sl_strlen
                0x00000000        0x8 ./gecko_sdk_4.4.1/platform/common/src/sl_string.o
 .text.sl_strcat_s
                0x00000000       0x26 ./gecko_sdk_4.4.1/platform/common/src/sl_string.o
 .text.sl_str_is_empty
                0x00000000       0x10 ./gecko_sdk_4.4.1/platform/common/src/sl_string.o
 .text.sl_strcasecmp
                0x00000000       0x44 ./gecko_sdk_4.4.1/platform/common/src/sl_string.o
 .text.sl_memrchr
                0x00000000       0x84 ./gecko_sdk_4.4.1/platform/common/src/sl_string.o
 .debug_info    0x00000000      0x49c ./gecko_sdk_4.4.1/platform/common/src/sl_string.o
 .debug_abbrev  0x00000000      0x243 ./gecko_sdk_4.4.1/platform/common/src/sl_string.o
 .debug_loc     0x00000000      0x71f ./gecko_sdk_4.4.1/platform/common/src/sl_string.o
 .debug_aranges
                0x00000000       0x50 ./gecko_sdk_4.4.1/platform/common/src/sl_string.o
 .debug_ranges  0x00000000       0xb0 ./gecko_sdk_4.4.1/platform/common/src/sl_string.o
 .debug_line    0x00000000      0x4e7 ./gecko_sdk_4.4.1/platform/common/src/sl_string.o
 .debug_str     0x00000000      0x2c1 ./gecko_sdk_4.4.1/platform/common/src/sl_string.o
 .comment       0x00000000       0x46 ./gecko_sdk_4.4.1/platform/common/src/sl_string.o
 .debug_frame   0x00000000       0xb8 ./gecko_sdk_4.4.1/platform/common/src/sl_string.o
 .ARM.attributes
                0x00000000       0x3a ./gecko_sdk_4.4.1/platform/common/src/sl_string.o
 .text          0x00000000        0x0 ./gecko_sdk_4.4.1/platform/common/src/sl_syscalls.o
 .data          0x00000000        0x0 ./gecko_sdk_4.4.1/platform/common/src/sl_syscalls.o
 .bss           0x00000000        0x0 ./gecko_sdk_4.4.1/platform/common/src/sl_syscalls.o
 .text._close   0x00000000        0x6 ./gecko_sdk_4.4.1/platform/common/src/sl_syscalls.o
 .text._exit    0x00000000        0x2 ./gecko_sdk_4.4.1/platform/common/src/sl_syscalls.o
 .text._fstat   0x00000000        0x4 ./gecko_sdk_4.4.1/platform/common/src/sl_syscalls.o
 .text._getpid  0x00000000        0x4 ./gecko_sdk_4.4.1/platform/common/src/sl_syscalls.o
 .text._isatty  0x00000000        0x4 ./gecko_sdk_4.4.1/platform/common/src/sl_syscalls.o
 .text._kill    0x00000000        0x6 ./gecko_sdk_4.4.1/platform/common/src/sl_syscalls.o
 .text._lseek   0x00000000        0x4 ./gecko_sdk_4.4.1/platform/common/src/sl_syscalls.o
 .text._read    0x00000000        0x4 ./gecko_sdk_4.4.1/platform/common/src/sl_syscalls.o
 .text._write   0x00000000        0x4 ./gecko_sdk_4.4.1/platform/common/src/sl_syscalls.o
 .text._gettimeofday
                0x00000000        0x4 ./gecko_sdk_4.4.1/platform/common/src/sl_syscalls.o
 .debug_info    0x00000000      0x306 ./gecko_sdk_4.4.1/platform/common/src/sl_syscalls.o
 .debug_abbrev  0x00000000      0x143 ./gecko_sdk_4.4.1/platform/common/src/sl_syscalls.o
 .debug_loc     0x00000000      0x118 ./gecko_sdk_4.4.1/platform/common/src/sl_syscalls.o
 .debug_aranges
                0x00000000       0x68 ./gecko_sdk_4.4.1/platform/common/src/sl_syscalls.o
 .debug_ranges  0x00000000       0x58 ./gecko_sdk_4.4.1/platform/common/src/sl_syscalls.o
 .debug_line    0x00000000      0x16d ./gecko_sdk_4.4.1/platform/common/src/sl_syscalls.o
 .debug_str     0x00000000      0x245 ./gecko_sdk_4.4.1/platform/common/src/sl_syscalls.o
 .comment       0x00000000       0x46 ./gecko_sdk_4.4.1/platform/common/src/sl_syscalls.o
 .debug_frame   0x00000000       0xb0 ./gecko_sdk_4.4.1/platform/common/src/sl_syscalls.o
 .ARM.attributes
                0x00000000       0x3a ./gecko_sdk_4.4.1/platform/common/src/sl_syscalls.o
 .text          0x00000000        0x0 ./gecko_sdk_4.4.1/platform/common/toolchain/src/sl_memory.o
 .data          0x00000000        0x0 ./gecko_sdk_4.4.1/platform/common/toolchain/src/sl_memory.o
 .bss           0x00000000        0x0 ./gecko_sdk_4.4.1/platform/common/toolchain/src/sl_memory.o
 .text.sl_memory_get_stack_region
                0x00000000       0x10 ./gecko_sdk_4.4.1/platform/common/toolchain/src/sl_memory.o
 .text.sl_memory_get_heap_region
                0x00000000       0x14 ./gecko_sdk_4.4.1/platform/common/toolchain/src/sl_memory.o
 .text          0x00000000        0x0 ./gecko_sdk_4.4.1/platform/driver/debug/src/sl_debug_swo.o
 .data          0x00000000        0x0 ./gecko_sdk_4.4.1/platform/driver/debug/src/sl_debug_swo.o
 .bss           0x00000000        0x0 ./gecko_sdk_4.4.1/platform/driver/debug/src/sl_debug_swo.o
 .text.sl_debug_swo_write_u16
                0x00000000       0x44 ./gecko_sdk_4.4.1/platform/driver/debug/src/sl_debug_swo.o
 .text.sl_debug_swo_write_u32
                0x00000000       0x44 ./gecko_sdk_4.4.1/platform/driver/debug/src/sl_debug_swo.o
 .text          0x00000000        0x0 ./gecko_sdk_4.4.1/platform/driver/i2cspm/src/sl_i2cspm.o
 .data          0x00000000        0x0 ./gecko_sdk_4.4.1/platform/driver/i2cspm/src/sl_i2cspm.o
 .bss           0x00000000        0x0 ./gecko_sdk_4.4.1/platform/driver/i2cspm/src/sl_i2cspm.o
 .text          0x00000000        0x0 ./gecko_sdk_4.4.1/platform/driver/leddrv/src/sl_led.o
 .data          0x00000000        0x0 ./gecko_sdk_4.4.1/platform/driver/leddrv/src/sl_led.o
 .bss           0x00000000        0x0 ./gecko_sdk_4.4.1/platform/driver/leddrv/src/sl_led.o
 .text.sl_led_turn_on
                0x00000000        0x6 ./gecko_sdk_4.4.1/platform/driver/leddrv/src/sl_led.o
 .text.sl_led_turn_off
                0x00000000        0x6 ./gecko_sdk_4.4.1/platform/driver/leddrv/src/sl_led.o
 .text.sl_led_toggle
                0x00000000        0x6 ./gecko_sdk_4.4.1/platform/driver/leddrv/src/sl_led.o
 .text.sl_led_get_state
                0x00000000        0x6 ./gecko_sdk_4.4.1/platform/driver/leddrv/src/sl_led.o
 .text          0x00000000        0x0 ./gecko_sdk_4.4.1/platform/driver/leddrv/src/sl_simple_led.o
 .data          0x00000000        0x0 ./gecko_sdk_4.4.1/platform/driver/leddrv/src/sl_simple_led.o
 .bss           0x00000000        0x0 ./gecko_sdk_4.4.1/platform/driver/leddrv/src/sl_simple_led.o
 .text          0x00000000        0x0 ./gecko_sdk_4.4.1/platform/emdrv/dmadrv/src/dmadrv.o
 .data          0x00000000        0x0 ./gecko_sdk_4.4.1/platform/emdrv/dmadrv/src/dmadrv.o
 .bss           0x00000000        0x0 ./gecko_sdk_4.4.1/platform/emdrv/dmadrv/src/dmadrv.o
 .text.DMADRV_LdmaStartTransfer
                0x00000000       0x4c ./gecko_sdk_4.4.1/platform/emdrv/dmadrv/src/dmadrv.o
 .text.DMADRV_MemoryPeripheral
                0x00000000       0x34 ./gecko_sdk_4.4.1/platform/emdrv/dmadrv/src/dmadrv.o
 .text.DMADRV_MemoryPeripheralPingPong
                0x00000000       0x34 ./gecko_sdk_4.4.1/platform/emdrv/dmadrv/src/dmadrv.o
 .text.DMADRV_PeripheralMemoryPingPong
                0x00000000       0x34 ./gecko_sdk_4.4.1/platform/emdrv/dmadrv/src/dmadrv.o
 .text.DMADRV_TransferActive
                0x00000000       0x4c ./gecko_sdk_4.4.1/platform/emdrv/dmadrv/src/dmadrv.o
 .text.DMADRV_TransferRemainingCount
                0x00000000       0x44 ./gecko_sdk_4.4.1/platform/emdrv/dmadrv/src/dmadrv.o
 .rodata.p2m    0x00000000       0x10 ./gecko_sdk_4.4.1/platform/emdrv/dmadrv/src/dmadrv.o
 .rodata.m2p    0x00000000       0x10 ./gecko_sdk_4.4.1/platform/emdrv/dmadrv/src/dmadrv.o
 .rodata.xferCfgPeripheral
                0x00000000       0x10 ./gecko_sdk_4.4.1/platform/emdrv/dmadrv/src/dmadrv.o
 .text          0x00000000        0x0 ./gecko_sdk_4.4.1/platform/emlib/src/em_burtc.o
 .data          0x00000000        0x0 ./gecko_sdk_4.4.1/platform/emlib/src/em_burtc.o
 .bss           0x00000000        0x0 ./gecko_sdk_4.4.1/platform/emlib/src/em_burtc.o
 .text.BURTC_SyncWait
                0x00000000       0x14 ./gecko_sdk_4.4.1/platform/emlib/src/em_burtc.o
 .rodata.BURTC_Init.str1.1
                0x00000000       0x31 ./gecko_sdk_4.4.1/platform/emlib/src/em_burtc.o
 .text.BURTC_Init
                0x00000000       0x78 ./gecko_sdk_4.4.1/platform/emlib/src/em_burtc.o
 .text.BURTC_Enable
                0x00000000       0x50 ./gecko_sdk_4.4.1/platform/emlib/src/em_burtc.o
 .text.BURTC_CompareSet
                0x00000000       0x2c ./gecko_sdk_4.4.1/platform/emlib/src/em_burtc.o
 .text.BURTC_CompareGet
                0x00000000       0x1c ./gecko_sdk_4.4.1/platform/emlib/src/em_burtc.o
 .text.BURTC_CounterReset
                0x00000000       0x20 ./gecko_sdk_4.4.1/platform/emlib/src/em_burtc.o
 .text.BURTC_Reset
                0x00000000       0x4c ./gecko_sdk_4.4.1/platform/emlib/src/em_burtc.o
 .debug_info    0x00000000      0x862 ./gecko_sdk_4.4.1/platform/emlib/src/em_burtc.o
 .debug_abbrev  0x00000000      0x2bd ./gecko_sdk_4.4.1/platform/emlib/src/em_burtc.o
 .debug_loc     0x00000000      0x1ed ./gecko_sdk_4.4.1/platform/emlib/src/em_burtc.o
 .debug_aranges
                0x00000000       0x50 ./gecko_sdk_4.4.1/platform/emlib/src/em_burtc.o
 .debug_ranges  0x00000000       0x98 ./gecko_sdk_4.4.1/platform/emlib/src/em_burtc.o
 .debug_line    0x00000000      0x6bd ./gecko_sdk_4.4.1/platform/emlib/src/em_burtc.o
 .debug_str     0x00000000      0x4eb ./gecko_sdk_4.4.1/platform/emlib/src/em_burtc.o
 .comment       0x00000000       0x46 ./gecko_sdk_4.4.1/platform/emlib/src/em_burtc.o
 .debug_frame   0x00000000       0xb4 ./gecko_sdk_4.4.1/platform/emlib/src/em_burtc.o
 .ARM.attributes
                0x00000000       0x3a ./gecko_sdk_4.4.1/platform/emlib/src/em_burtc.o
 .text          0x00000000        0x0 ./gecko_sdk_4.4.1/platform/emlib/src/em_cmu.o
 .data          0x00000000        0x0 ./gecko_sdk_4.4.1/platform/emlib/src/em_cmu.o
 .bss           0x00000000        0x0 ./gecko_sdk_4.4.1/platform/emlib/src/em_cmu.o
 .text.HFRCODPLLDevinfoGet
                0x00000000      0x108 ./gecko_sdk_4.4.1/platform/emlib/src/em_cmu.o
 .text.CMU_CalibrateConfig
                0x00000000       0xe8 ./gecko_sdk_4.4.1/platform/emlib/src/em_cmu.o
 .text.CMU_CalibrateCountGet
                0x00000000       0x1c ./gecko_sdk_4.4.1/platform/emlib/src/em_cmu.o
 .text.CMU_Calibrate
                0x00000000       0x38 ./gecko_sdk_4.4.1/platform/emlib/src/em_cmu.o
 .text.CMU_ClkOutPinConfig
                0x00000000      0x180 ./gecko_sdk_4.4.1/platform/emlib/src/em_cmu.o
 .text.sli_em_cmu_SYSTICEXTCLKENSet
                0x00000000       0x30 ./gecko_sdk_4.4.1/platform/emlib/src/em_cmu.o
 .text.sli_em_cmu_SYSTICEXTCLKENClear
                0x00000000       0x30 ./gecko_sdk_4.4.1/platform/emlib/src/em_cmu.o
 .text.CMU_LF_ClockPrecisionGet
                0x00000000       0x3c ./gecko_sdk_4.4.1/platform/emlib/src/em_cmu.o
 .text.CMU_HF_ClockPrecisionGet
                0x00000000       0x18 ./gecko_sdk_4.4.1/platform/emlib/src/em_cmu.o
 .text.CMU_HFRCODPLLBandGet
                0x00000000        0x4 ./gecko_sdk_4.4.1/platform/emlib/src/em_cmu.o
 .text.CMU_HFXOStartCrystalSharingLeader
                0x00000000       0x8c ./gecko_sdk_4.4.1/platform/emlib/src/em_cmu.o
 .text.CMU_HFXOCrystalSharingFollowerInit
                0x00000000       0xec ./gecko_sdk_4.4.1/platform/emlib/src/em_cmu.o
 .text.CMU_HFXOCTuneSet
                0x00000000       0x78 ./gecko_sdk_4.4.1/platform/emlib/src/em_cmu.o
 .text.CMU_HFXOCTuneGet
                0x00000000       0x50 ./gecko_sdk_4.4.1/platform/emlib/src/em_cmu.o
 .text.CMU_HFXOCTuneDeltaSet
                0x00000000        0xc ./gecko_sdk_4.4.1/platform/emlib/src/em_cmu.o
 .text.CMU_HFXOCoreBiasCurrentCalibrate
                0x00000000       0x60 ./gecko_sdk_4.4.1/platform/emlib/src/em_cmu.o
 .text.CMU_LFXOPrecisionGet
                0x00000000        0xc ./gecko_sdk_4.4.1/platform/emlib/src/em_cmu.o
 .text.CMU_HFXOPrecisionGet
                0x00000000        0xc ./gecko_sdk_4.4.1/platform/emlib/src/em_cmu.o
 .text.CMU_LFRCOSetPrecision
                0x00000000       0x80 ./gecko_sdk_4.4.1/platform/emlib/src/em_cmu.o
 .text.CMU_OscillatorTuningGet
                0x00000000       0x64 ./gecko_sdk_4.4.1/platform/emlib/src/em_cmu.o
 .text.CMU_OscillatorTuningSet
                0x00000000      0x128 ./gecko_sdk_4.4.1/platform/emlib/src/em_cmu.o
 .text.CMU_ClockSelectSet
                0x00000000      0x694 ./gecko_sdk_4.4.1/platform/emlib/src/em_cmu.o
 .text.CMU_HFRCODPLLBandSet
                0x00000000      0x11c ./gecko_sdk_4.4.1/platform/emlib/src/em_cmu.o
 .text.CMU_DPLLLock
                0x00000000      0x288 ./gecko_sdk_4.4.1/platform/emlib/src/em_cmu.o
 .text.CMU_PCNTClockExternalSet
                0x00000000       0x14 ./gecko_sdk_4.4.1/platform/emlib/src/em_cmu.o
 .text.CMU_HFRCOEM23BandGet
                0x00000000        0x4 ./gecko_sdk_4.4.1/platform/emlib/src/em_cmu.o
 .text.CMU_HFRCOEM23BandSet
                0x00000000      0x168 ./gecko_sdk_4.4.1/platform/emlib/src/em_cmu.o
 .rodata.CSWTCH.98
                0x00000000        0x6 ./gecko_sdk_4.4.1/platform/emlib/src/em_cmu.o
 .rodata.CSWTCH.76
                0x00000000        0x8 ./gecko_sdk_4.4.1/platform/emlib/src/em_cmu.o
 .rodata.hfrcoCalTable
                0x00000000      0x190 ./gecko_sdk_4.4.1/platform/emlib/src/em_cmu.o
 .text          0x00000000        0x0 ./gecko_sdk_4.4.1/platform/emlib/src/em_core.o
 .data          0x00000000        0x0 ./gecko_sdk_4.4.1/platform/emlib/src/em_core.o
 .bss           0x00000000        0x0 ./gecko_sdk_4.4.1/platform/emlib/src/em_core.o
 .text.__NVIC_GetPriority
                0x00000000       0x24 ./gecko_sdk_4.4.1/platform/emlib/src/em_core.o
 .text.CORE_CriticalDisableIrq
                0x00000000        0x4 ./gecko_sdk_4.4.1/platform/emlib/src/em_core.o
 .text.CORE_CriticalEnableIrq
                0x00000000        0x4 ./gecko_sdk_4.4.1/platform/emlib/src/em_core.o
 .text.CORE_YieldCritical
                0x00000000       0x12 ./gecko_sdk_4.4.1/platform/emlib/src/em_core.o
 .text.CORE_AtomicDisableIrq
                0x00000000        0x8 ./gecko_sdk_4.4.1/platform/emlib/src/em_core.o
 .text.CORE_AtomicEnableIrq
                0x00000000        0x8 ./gecko_sdk_4.4.1/platform/emlib/src/em_core.o
 .text.CORE_YieldAtomic
                0x00000000       0x18 ./gecko_sdk_4.4.1/platform/emlib/src/em_core.o
 .text.CORE_EnterNvicMask
                0x00000000       0x2c ./gecko_sdk_4.4.1/platform/emlib/src/em_core.o
 .text.CORE_NvicDisableMask
                0x00000000       0x20 ./gecko_sdk_4.4.1/platform/emlib/src/em_core.o
 .text.CORE_NvicEnableMask
                0x00000000       0x20 ./gecko_sdk_4.4.1/platform/emlib/src/em_core.o
 .text.CORE_YieldNvicMask
                0x00000000       0x48 ./gecko_sdk_4.4.1/platform/emlib/src/em_core.o
 .rodata.CORE_NvicMaskSetIRQ.str1.1
                0x00000000       0x30 ./gecko_sdk_4.4.1/platform/emlib/src/em_core.o
 .text.CORE_NvicMaskSetIRQ
                0x00000000       0x30 ./gecko_sdk_4.4.1/platform/emlib/src/em_core.o
 .text.CORE_NvicMaskClearIRQ
                0x00000000       0x34 ./gecko_sdk_4.4.1/platform/emlib/src/em_core.o
 .text.CORE_InIrqContext
                0x00000000       0x14 ./gecko_sdk_4.4.1/platform/emlib/src/em_core.o
 .text.CORE_IrqIsDisabled
                0x00000000       0x1a ./gecko_sdk_4.4.1/platform/emlib/src/em_core.o
 .text.CORE_GetNvicEnabledMask
                0x00000000       0x20 ./gecko_sdk_4.4.1/platform/emlib/src/em_core.o
 .text.CORE_GetNvicMaskDisableState
                0x00000000       0x38 ./gecko_sdk_4.4.1/platform/emlib/src/em_core.o
 .text.CORE_NvicIRQDisabled
                0x00000000       0x34 ./gecko_sdk_4.4.1/platform/emlib/src/em_core.o
 .text.CORE_IrqIsBlocked
                0x00000000       0x6c ./gecko_sdk_4.4.1/platform/emlib/src/em_core.o
 .text.CORE_GetNvicRamTableHandler
                0x00000000       0x2c ./gecko_sdk_4.4.1/platform/emlib/src/em_core.o
 .text.CORE_SetNvicRamTableHandler
                0x00000000       0x30 ./gecko_sdk_4.4.1/platform/emlib/src/em_core.o
 .text.CORE_InitNvicVectorTable
                0x00000000       0xcc ./gecko_sdk_4.4.1/platform/emlib/src/em_core.o
 .text          0x00000000        0x0 ./gecko_sdk_4.4.1/platform/emlib/src/em_emu.o
 .data          0x00000000        0x0 ./gecko_sdk_4.4.1/platform/emlib/src/em_emu.o
 .bss           0x00000000        0x0 ./gecko_sdk_4.4.1/platform/emlib/src/em_emu.o
 .text.EMU_EM23Init
                0x00000000       0x18 ./gecko_sdk_4.4.1/platform/emlib/src/em_emu.o
 .text.EMU_EM23PresleepHook
                0x00000000        0x2 ./gecko_sdk_4.4.1/platform/emlib/src/em_emu.o
 .text.EMU_EFPEM23PresleepHook
                0x00000000        0x2 ./gecko_sdk_4.4.1/platform/emlib/src/em_emu.o
 .text.EMU_EM23PostsleepHook
                0x00000000        0x2 ./gecko_sdk_4.4.1/platform/emlib/src/em_emu.o
 .text.EMU_EFPEM23PostsleepHook
                0x00000000        0x2 ./gecko_sdk_4.4.1/platform/emlib/src/em_emu.o
 .text.EMU_EnterEM2
                0x00000000       0x30 ./gecko_sdk_4.4.1/platform/emlib/src/em_emu.o
 .text.EMU_EnterEM3
                0x00000000       0x28 ./gecko_sdk_4.4.1/platform/emlib/src/em_emu.o
 .text.EMU_Save
                0x00000000        0x2 ./gecko_sdk_4.4.1/platform/emlib/src/em_emu.o
 .text.EMU_Restore
                0x00000000        0x2 ./gecko_sdk_4.4.1/platform/emlib/src/em_emu.o
 .text.EMU_EM4PresleepHook
                0x00000000        0x2 ./gecko_sdk_4.4.1/platform/emlib/src/em_emu.o
 .text.EMU_EFPEM4PresleepHook
                0x00000000        0x2 ./gecko_sdk_4.4.1/platform/emlib/src/em_emu.o
 .text.EMU_MemPwrDown
                0x00000000        0x2 ./gecko_sdk_4.4.1/platform/emlib/src/em_emu.o
 .text.EMU_RamPowerDown
                0x00000000       0x50 ./gecko_sdk_4.4.1/platform/emlib/src/em_emu.o
 .text.EMU_RamPowerUp
                0x00000000       0x18 ./gecko_sdk_4.4.1/platform/emlib/src/em_emu.o
 .text.EMU_UpdateOscConfig
                0x00000000        0x2 ./gecko_sdk_4.4.1/platform/emlib/src/em_emu.o
 .text.EMU_EM01Init
                0x00000000       0x14 ./gecko_sdk_4.4.1/platform/emlib/src/em_emu.o
 .text.EMU_EnterEM4
                0x00000000       0x84 ./gecko_sdk_4.4.1/platform/emlib/src/em_emu.o
 .text.EMU_EnterEM4Wait
                0x00000000       0x14 ./gecko_sdk_4.4.1/platform/emlib/src/em_emu.o
 .text.EMU_EnterEM4H
                0x00000000        0x4 ./gecko_sdk_4.4.1/platform/emlib/src/em_emu.o
 .text.EMU_EnterEM4S
                0x00000000        0x4 ./gecko_sdk_4.4.1/platform/emlib/src/em_emu.o
 .text.EMU_DCDCPowerOff
                0x00000000        0xc ./gecko_sdk_4.4.1/platform/emlib/src/em_emu.o
 .text.EMU_EM01PeakCurrentSet
                0x00000000       0x60 ./gecko_sdk_4.4.1/platform/emlib/src/em_emu.o
 .text.EMU_DCDCSetPFMXTimeoutMaxCtrl
                0x00000000       0x58 ./gecko_sdk_4.4.1/platform/emlib/src/em_emu.o
 .text.EMU_TemperatureGet
                0x00000000       0x24 ./gecko_sdk_4.4.1/platform/emlib/src/em_emu.o
 .text.EMU_EFPDirectModeEnable
                0x00000000       0x18 ./gecko_sdk_4.4.1/platform/emlib/src/em_emu.o
 .text.EMU_EFPDriveDecoupleSet
                0x00000000       0x18 ./gecko_sdk_4.4.1/platform/emlib/src/em_emu.o
 .text.EMU_EFPDriveDvddSet
                0x00000000       0x18 ./gecko_sdk_4.4.1/platform/emlib/src/em_emu.o
 .text          0x00000000        0x0 ./gecko_sdk_4.4.1/platform/emlib/src/em_eusart.o
 .data          0x00000000        0x0 ./gecko_sdk_4.4.1/platform/emlib/src/em_eusart.o
 .bss           0x00000000        0x0 ./gecko_sdk_4.4.1/platform/emlib/src/em_eusart.o
 .text.EUSART_Rx
                0x00000000       0x28 ./gecko_sdk_4.4.1/platform/emlib/src/em_eusart.o
 .text.EUSART_RxExt
                0x00000000        0xc ./gecko_sdk_4.4.1/platform/emlib/src/em_eusart.o
 .text.EUSART_TxExt
                0x00000000        0xa ./gecko_sdk_4.4.1/platform/emlib/src/em_eusart.o
 .text.EUSART_Spi_TxRx
                0x00000000       0x14 ./gecko_sdk_4.4.1/platform/emlib/src/em_eusart.o
 .text.EUSART_Dali_Tx
                0x00000000       0x64 ./gecko_sdk_4.4.1/platform/emlib/src/em_eusart.o
 .text.EUSART_Dali_Rx
                0x00000000       0x64 ./gecko_sdk_4.4.1/platform/emlib/src/em_eusart.o
 .text.EUSART_IrDAInit
                0x00000000       0xc8 ./gecko_sdk_4.4.1/platform/emlib/src/em_eusart.o
 .text.EUSART_DaliInit
                0x00000000       0xbc ./gecko_sdk_4.4.1/platform/emlib/src/em_eusart.o
 .text.EUSART_SpiInit
                0x00000000      0x20c ./gecko_sdk_4.4.1/platform/emlib/src/em_eusart.o
 .text.EUSART_BaudrateGet
                0x00000000       0xf0 ./gecko_sdk_4.4.1/platform/emlib/src/em_eusart.o
 .text.EUSART_RxBlock
                0x00000000       0x54 ./gecko_sdk_4.4.1/platform/emlib/src/em_eusart.o
 .text.EUSART_TxTristateSet
                0x00000000       0x50 ./gecko_sdk_4.4.1/platform/emlib/src/em_eusart.o
 .text.EUSART_PrsTriggerEnable
                0x00000000       0xa0 ./gecko_sdk_4.4.1/platform/emlib/src/em_eusart.o
 .text          0x00000000        0x0 ./gecko_sdk_4.4.1/platform/emlib/src/em_gpio.o
 .data          0x00000000        0x0 ./gecko_sdk_4.4.1/platform/emlib/src/em_gpio.o
 .bss           0x00000000        0x0 ./gecko_sdk_4.4.1/platform/emlib/src/em_gpio.o
 .rodata.BUS_RegBitWrite.str1.1
                0x00000000       0x64 ./gecko_sdk_4.4.1/platform/emlib/src/em_gpio.o
 .text.BUS_RegBitWrite
                0x00000000       0x2c ./gecko_sdk_4.4.1/platform/emlib/src/em_gpio.o
 .text.GPIO_ExtIntConfig
                0x00000000       0xe0 ./gecko_sdk_4.4.1/platform/emlib/src/em_gpio.o
 .text.GPIO_PinModeGet
                0x00000000       0x50 ./gecko_sdk_4.4.1/platform/emlib/src/em_gpio.o
 .text.GPIO_EM4EnablePinWakeup
                0x00000000       0x7c ./gecko_sdk_4.4.1/platform/emlib/src/em_gpio.o
 .text.GPIO_EM4WUExtIntConfig
                0x00000000       0x60 ./gecko_sdk_4.4.1/platform/emlib/src/em_gpio.o
 .text          0x00000000        0x0 ./gecko_sdk_4.4.1/platform/emlib/src/em_i2c.o
 .data          0x00000000        0x0 ./gecko_sdk_4.4.1/platform/emlib/src/em_i2c.o
 .bss           0x00000000        0x0 ./gecko_sdk_4.4.1/platform/emlib/src/em_i2c.o
 .text.I2C_BusFreqGet
                0x00000000       0x4c ./gecko_sdk_4.4.1/platform/emlib/src/em_i2c.o
 .text.I2C_Reset
                0x00000000       0x30 ./gecko_sdk_4.4.1/platform/emlib/src/em_i2c.o
 .text          0x00000000        0x0 ./gecko_sdk_4.4.1/platform/emlib/src/em_ldma.o
 .data          0x00000000        0x0 ./gecko_sdk_4.4.1/platform/emlib/src/em_ldma.o
 .bss           0x00000000        0x0 ./gecko_sdk_4.4.1/platform/emlib/src/em_ldma.o
 .text.LDMA_TransferRemainingCount
                0x00000000       0x50 ./gecko_sdk_4.4.1/platform/emlib/src/em_ldma.o
 .text          0x00000000        0x0 ./gecko_sdk_4.4.1/platform/emlib/src/em_msc.o
 .data          0x00000000        0x0 ./gecko_sdk_4.4.1/platform/emlib/src/em_msc.o
 .bss           0x00000000        0x0 ./gecko_sdk_4.4.1/platform/emlib/src/em_msc.o
 .ram           0x00000000      0x1e8 ./gecko_sdk_4.4.1/platform/emlib/src/em_msc.o
 .rodata.str1.1
                0x00000000       0x2f ./gecko_sdk_4.4.1/platform/emlib/src/em_msc.o
 .text.MSC_Init
                0x00000000       0x20 ./gecko_sdk_4.4.1/platform/emlib/src/em_msc.o
 .text.MSC_Deinit
                0x00000000       0x24 ./gecko_sdk_4.4.1/platform/emlib/src/em_msc.o
 .text.MSC_ExecConfigSet
                0x00000000       0x18 ./gecko_sdk_4.4.1/platform/emlib/src/em_msc.o
 .text.MSC_WriteWordDma
                0x00000000       0xf4 ./gecko_sdk_4.4.1/platform/emlib/src/em_msc.o
 .text.MSC_EccConfigSet
                0x00000000       0x7c ./gecko_sdk_4.4.1/platform/emlib/src/em_msc.o
 .text.MSC_DmemPortMapSet
                0x00000000       0x7c ./gecko_sdk_4.4.1/platform/emlib/src/em_msc.o
 .text.MSC_PortSetPriority
                0x00000000       0x38 ./gecko_sdk_4.4.1/platform/emlib/src/em_msc.o
 .text.MSC_PortGetCurrentPriority
                0x00000000       0x10 ./gecko_sdk_4.4.1/platform/emlib/src/em_msc.o
 .debug_info    0x00000000     0x35e0 ./gecko_sdk_4.4.1/platform/emlib/src/em_msc.o
 .debug_abbrev  0x00000000      0x36f ./gecko_sdk_4.4.1/platform/emlib/src/em_msc.o
 .debug_loc     0x00000000      0xa36 ./gecko_sdk_4.4.1/platform/emlib/src/em_msc.o
 .debug_aranges
                0x00000000       0x80 ./gecko_sdk_4.4.1/platform/emlib/src/em_msc.o
 .debug_ranges  0x00000000      0x110 ./gecko_sdk_4.4.1/platform/emlib/src/em_msc.o
 .debug_line    0x00000000      0xa86 ./gecko_sdk_4.4.1/platform/emlib/src/em_msc.o
 .debug_str     0x00000000     0x1c7e ./gecko_sdk_4.4.1/platform/emlib/src/em_msc.o
 .comment       0x00000000       0x46 ./gecko_sdk_4.4.1/platform/emlib/src/em_msc.o
 .debug_frame   0x00000000      0x174 ./gecko_sdk_4.4.1/platform/emlib/src/em_msc.o
 .ARM.attributes
                0x00000000       0x3a ./gecko_sdk_4.4.1/platform/emlib/src/em_msc.o
 .text          0x00000000        0x0 ./gecko_sdk_4.4.1/platform/emlib/src/em_prs.o
 .data          0x00000000        0x0 ./gecko_sdk_4.4.1/platform/emlib/src/em_prs.o
 .bss           0x00000000        0x0 ./gecko_sdk_4.4.1/platform/emlib/src/em_prs.o
 .rodata.PRS_ConvertToSyncSource.str1.1
                0x00000000       0x2f ./gecko_sdk_4.4.1/platform/emlib/src/em_prs.o
 .text.PRS_ConvertToSyncSource
                0x00000000       0x5c ./gecko_sdk_4.4.1/platform/emlib/src/em_prs.o
 .text.PRS_ConvertToSyncSignal
                0x00000000       0x88 ./gecko_sdk_4.4.1/platform/emlib/src/em_prs.o
 .text.PRS_SourceSignalSet
                0x00000000       0x34 ./gecko_sdk_4.4.1/platform/emlib/src/em_prs.o
 .text.PRS_GetFreeChannel
                0x00000000       0x38 ./gecko_sdk_4.4.1/platform/emlib/src/em_prs.o
 .text.PRS_Reset
                0x00000000       0x28 ./gecko_sdk_4.4.1/platform/emlib/src/em_prs.o
 .text.PRS_ConnectSignal
                0x00000000       0x5c ./gecko_sdk_4.4.1/platform/emlib/src/em_prs.o
 .text.PRS_SourceAsyncSignalSet
                0x00000000        0xa ./gecko_sdk_4.4.1/platform/emlib/src/em_prs.o
 .text.PRS_ConnectConsumer
                0x00000000       0x38 ./gecko_sdk_4.4.1/platform/emlib/src/em_prs.o
 .text.PRS_PinOutput
                0x00000000       0x3c ./gecko_sdk_4.4.1/platform/emlib/src/em_prs.o
 .text.PRS_Combine
                0x00000000       0x48 ./gecko_sdk_4.4.1/platform/emlib/src/em_prs.o
 .debug_info    0x00000000     0x3e14 ./gecko_sdk_4.4.1/platform/emlib/src/em_prs.o
 .debug_abbrev  0x00000000      0x2e5 ./gecko_sdk_4.4.1/platform/emlib/src/em_prs.o
 .debug_loc     0x00000000      0xad4 ./gecko_sdk_4.4.1/platform/emlib/src/em_prs.o
 .debug_aranges
                0x00000000       0x68 ./gecko_sdk_4.4.1/platform/emlib/src/em_prs.o
 .debug_ranges  0x00000000       0x90 ./gecko_sdk_4.4.1/platform/emlib/src/em_prs.o
 .debug_line    0x00000000      0x6f5 ./gecko_sdk_4.4.1/platform/emlib/src/em_prs.o
 .debug_str     0x00000000     0x4bf8 ./gecko_sdk_4.4.1/platform/emlib/src/em_prs.o
 .comment       0x00000000       0x46 ./gecko_sdk_4.4.1/platform/emlib/src/em_prs.o
 .debug_frame   0x00000000      0x104 ./gecko_sdk_4.4.1/platform/emlib/src/em_prs.o
 .ARM.attributes
                0x00000000       0x3a ./gecko_sdk_4.4.1/platform/emlib/src/em_prs.o
 .text          0x00000000        0x0 ./gecko_sdk_4.4.1/platform/emlib/src/em_system.o
 .data          0x00000000        0x0 ./gecko_sdk_4.4.1/platform/emlib/src/em_system.o
 .bss           0x00000000        0x0 ./gecko_sdk_4.4.1/platform/emlib/src/em_system.o
 .text.SYSTEM_ChipRevisionGet
                0x00000000       0x24 ./gecko_sdk_4.4.1/platform/emlib/src/em_system.o
 .text.SYSTEM_GetCalibrationValue
                0x00000000       0x30 ./gecko_sdk_4.4.1/platform/emlib/src/em_system.o
 .text.SYSTEM_GetSecurityCapability
                0x00000000       0x28 ./gecko_sdk_4.4.1/platform/emlib/src/em_system.o
 .text.SYSTEM_GetUnique
                0x00000000        0xc ./gecko_sdk_4.4.1/platform/emlib/src/em_system.o
 .text.SYSTEM_GetProdRev
                0x00000000       0x10 ./gecko_sdk_4.4.1/platform/emlib/src/em_system.o
 .text.SYSTEM_GetSRAMBaseAddress
                0x00000000        0x6 ./gecko_sdk_4.4.1/platform/emlib/src/em_system.o
 .text.SYSTEM_GetSRAMSize
                0x00000000       0x10 ./gecko_sdk_4.4.1/platform/emlib/src/em_system.o
 .text.SYSTEM_GetFlashSize
                0x00000000        0xc ./gecko_sdk_4.4.1/platform/emlib/src/em_system.o
 .text.SYSTEM_GetFlashPageSize
                0x00000000       0x14 ./gecko_sdk_4.4.1/platform/emlib/src/em_system.o
 .text.SYSTEM_GetPartNumber
                0x00000000        0xc ./gecko_sdk_4.4.1/platform/emlib/src/em_system.o
 .text.SYSTEM_GetCalibrationTemperature
                0x00000000        0xc ./gecko_sdk_4.4.1/platform/emlib/src/em_system.o
 .text.SYSTEM_GetFamily
                0x00000000       0x18 ./gecko_sdk_4.4.1/platform/emlib/src/em_system.o
 .rodata.CSWTCH.11
                0x00000000        0x3 ./gecko_sdk_4.4.1/platform/emlib/src/em_system.o
 .debug_info    0x00000000     0x1e67 ./gecko_sdk_4.4.1/platform/emlib/src/em_system.o
 .debug_abbrev  0x00000000      0x297 ./gecko_sdk_4.4.1/platform/emlib/src/em_system.o
 .debug_loc     0x00000000      0x160 ./gecko_sdk_4.4.1/platform/emlib/src/em_system.o
 .debug_aranges
                0x00000000       0x78 ./gecko_sdk_4.4.1/platform/emlib/src/em_system.o
 .debug_ranges  0x00000000       0x80 ./gecko_sdk_4.4.1/platform/emlib/src/em_system.o
 .debug_line    0x00000000      0x4b5 ./gecko_sdk_4.4.1/platform/emlib/src/em_system.o
 .debug_str     0x00000000     0x1539 ./gecko_sdk_4.4.1/platform/emlib/src/em_system.o
 .comment       0x00000000       0x46 ./gecko_sdk_4.4.1/platform/emlib/src/em_system.o
 .debug_frame   0x00000000       0xd8 ./gecko_sdk_4.4.1/platform/emlib/src/em_system.o
 .ARM.attributes
                0x00000000       0x3a ./gecko_sdk_4.4.1/platform/emlib/src/em_system.o
 .text          0x00000000        0x0 ./gecko_sdk_4.4.1/platform/emlib/src/em_timer.o
 .data          0x00000000        0x0 ./gecko_sdk_4.4.1/platform/emlib/src/em_timer.o
 .bss           0x00000000        0x0 ./gecko_sdk_4.4.1/platform/emlib/src/em_timer.o
 .text.TIMER_Valid
                0x00000000       0x34 ./gecko_sdk_4.4.1/platform/emlib/src/em_timer.o
 .rodata.timerPrsConfig.str1.1
                0x00000000       0x31 ./gecko_sdk_4.4.1/platform/emlib/src/em_timer.o
 .text.timerPrsConfig
                0x00000000       0x70 ./gecko_sdk_4.4.1/platform/emlib/src/em_timer.o
 .text.TIMER_SyncWait
                0x00000000        0xe ./gecko_sdk_4.4.1/platform/emlib/src/em_timer.o
 .text.TIMER_Init
                0x00000000       0x98 ./gecko_sdk_4.4.1/platform/emlib/src/em_timer.o
 .text.TIMER_InitCC
                0x00000000       0xac ./gecko_sdk_4.4.1/platform/emlib/src/em_timer.o
 .text.TIMER_Reset
                0x00000000       0xa0 ./gecko_sdk_4.4.1/platform/emlib/src/em_timer.o
 .rodata.TIMER_InitDTI.str1.1
                0x00000000       0x66 ./gecko_sdk_4.4.1/platform/emlib/src/em_timer.o
 .text.TIMER_InitDTI
                0x00000000      0x148 ./gecko_sdk_4.4.1/platform/emlib/src/em_timer.o
 .debug_info    0x00000000     0x2f23 ./gecko_sdk_4.4.1/platform/emlib/src/em_timer.o
 .debug_abbrev  0x00000000      0x343 ./gecko_sdk_4.4.1/platform/emlib/src/em_timer.o
 .debug_loc     0x00000000      0x6c2 ./gecko_sdk_4.4.1/platform/emlib/src/em_timer.o
 .debug_aranges
                0x00000000       0x50 ./gecko_sdk_4.4.1/platform/emlib/src/em_timer.o
 .debug_ranges  0x00000000       0xb8 ./gecko_sdk_4.4.1/platform/emlib/src/em_timer.o
 .debug_line    0x00000000      0x8ff ./gecko_sdk_4.4.1/platform/emlib/src/em_timer.o
 .debug_str     0x00000000     0x3304 ./gecko_sdk_4.4.1/platform/emlib/src/em_timer.o
 .comment       0x00000000       0x46 ./gecko_sdk_4.4.1/platform/emlib/src/em_timer.o
 .debug_frame   0x00000000       0xd4 ./gecko_sdk_4.4.1/platform/emlib/src/em_timer.o
 .ARM.attributes
                0x00000000       0x3a ./gecko_sdk_4.4.1/platform/emlib/src/em_timer.o
 .text          0x00000000        0x0 ./gecko_sdk_4.4.1/platform/emlib/src/em_usart.o
 .data          0x00000000        0x0 ./gecko_sdk_4.4.1/platform/emlib/src/em_usart.o
 .bss           0x00000000        0x0 ./gecko_sdk_4.4.1/platform/emlib/src/em_usart.o
 .text.USART_BaudrateAsyncSet
                0x00000000       0xe0 ./gecko_sdk_4.4.1/platform/emlib/src/em_usart.o
 .text.USART_BaudrateCalc
                0x00000000       0x7c ./gecko_sdk_4.4.1/platform/emlib/src/em_usart.o
 .text.USART_BaudrateGet
                0x00000000       0x22 ./gecko_sdk_4.4.1/platform/emlib/src/em_usart.o
 .text.USART_Enable
                0x00000000       0x3c ./gecko_sdk_4.4.1/platform/emlib/src/em_usart.o
 .text.USART_InitPrsTrigger
                0x00000000       0x38 ./gecko_sdk_4.4.1/platform/emlib/src/em_usart.o
 .text.USART_InitAsync
                0x00000000       0xd4 ./gecko_sdk_4.4.1/platform/emlib/src/em_usart.o
 .text.USARTn_InitIrDA
                0x00000000       0x50 ./gecko_sdk_4.4.1/platform/emlib/src/em_usart.o
 .text.USART_InitI2s
                0x00000000       0x60 ./gecko_sdk_4.4.1/platform/emlib/src/em_usart.o
 .text.USART_Rx
                0x00000000        0xc ./gecko_sdk_4.4.1/platform/emlib/src/em_usart.o
 .text.USART_RxDouble
                0x00000000        0xc ./gecko_sdk_4.4.1/platform/emlib/src/em_usart.o
 .text.USART_RxDoubleExt
                0x00000000        0xa ./gecko_sdk_4.4.1/platform/emlib/src/em_usart.o
 .text.USART_RxExt
                0x00000000        0xc ./gecko_sdk_4.4.1/platform/emlib/src/em_usart.o
 .text.USART_Tx
                0x00000000        0xa ./gecko_sdk_4.4.1/platform/emlib/src/em_usart.o
 .text.USART_TxDouble
                0x00000000        0xa ./gecko_sdk_4.4.1/platform/emlib/src/em_usart.o
 .text.USART_TxDoubleExt
                0x00000000        0xa ./gecko_sdk_4.4.1/platform/emlib/src/em_usart.o
 .text.USART_TxExt
                0x00000000        0xa ./gecko_sdk_4.4.1/platform/emlib/src/em_usart.o
 .text          0x00000000        0x0 ./gecko_sdk_4.4.1/platform/peripheral/src/peripheral_sysrtc.o
 .data          0x00000000        0x0 ./gecko_sdk_4.4.1/platform/peripheral/src/peripheral_sysrtc.o
 .bss           0x00000000        0x0 ./gecko_sdk_4.4.1/platform/peripheral/src/peripheral_sysrtc.o
 .text.sl_hal_sysrtc_start
                0x00000000       0x14 ./gecko_sdk_4.4.1/platform/peripheral/src/peripheral_sysrtc.o
 .text.sl_hal_sysrtc_get_status
                0x00000000        0xc ./gecko_sdk_4.4.1/platform/peripheral/src/peripheral_sysrtc.o
 .text.sl_hal_sysrtc_lock
                0x00000000       0x10 ./gecko_sdk_4.4.1/platform/peripheral/src/peripheral_sysrtc.o
 .text.sl_hal_sysrtc_unlock
                0x00000000       0x10 ./gecko_sdk_4.4.1/platform/peripheral/src/peripheral_sysrtc.o
 .text.sl_hal_sysrtc_get_counter
                0x00000000       0x10 ./gecko_sdk_4.4.1/platform/peripheral/src/peripheral_sysrtc.o
 .text.sl_hal_sysrtc_set_counter
                0x00000000       0x10 ./gecko_sdk_4.4.1/platform/peripheral/src/peripheral_sysrtc.o
 .text.sl_hal_sysrtc_reset
                0x00000000        0xc ./gecko_sdk_4.4.1/platform/peripheral/src/peripheral_sysrtc.o
 .text.sl_hal_sysrtc_get_group_enabled_interrupts
                0x00000000       0x24 ./gecko_sdk_4.4.1/platform/peripheral/src/peripheral_sysrtc.o
 .text.sl_hal_sysrtc_set_group_interrupts
                0x00000000       0x1c ./gecko_sdk_4.4.1/platform/peripheral/src/peripheral_sysrtc.o
 .text.sl_hal_sysrtc_get_group_capture_channel_value
                0x00000000       0x20 ./gecko_sdk_4.4.1/platform/peripheral/src/peripheral_sysrtc.o
 .text          0x00000000        0x0 ./gecko_sdk_4.4.1/platform/service/device_init/src/sl_device_init_dcdc_s2.o
 .data          0x00000000        0x0 ./gecko_sdk_4.4.1/platform/service/device_init/src/sl_device_init_dcdc_s2.o
 .bss           0x00000000        0x0 ./gecko_sdk_4.4.1/platform/service/device_init/src/sl_device_init_dcdc_s2.o
 .text          0x00000000        0x0 ./gecko_sdk_4.4.1/platform/service/device_init/src/sl_device_init_emu_s2.o
 .data          0x00000000        0x0 ./gecko_sdk_4.4.1/platform/service/device_init/src/sl_device_init_emu_s2.o
 .bss           0x00000000        0x0 ./gecko_sdk_4.4.1/platform/service/device_init/src/sl_device_init_emu_s2.o
 .text          0x00000000        0x0 ./gecko_sdk_4.4.1/platform/service/device_init/src/sl_device_init_hfxo_s2.o
 .data          0x00000000        0x0 ./gecko_sdk_4.4.1/platform/service/device_init/src/sl_device_init_hfxo_s2.o
 .bss           0x00000000        0x0 ./gecko_sdk_4.4.1/platform/service/device_init/src/sl_device_init_hfxo_s2.o
 .text          0x00000000        0x0 ./gecko_sdk_4.4.1/platform/service/device_init/src/sl_device_init_lfxo_s2.o
 .data          0x00000000        0x0 ./gecko_sdk_4.4.1/platform/service/device_init/src/sl_device_init_lfxo_s2.o
 .bss           0x00000000        0x0 ./gecko_sdk_4.4.1/platform/service/device_init/src/sl_device_init_lfxo_s2.o
 .text          0x00000000        0x0 ./gecko_sdk_4.4.1/platform/service/device_init/src/sl_device_init_nvic.o
 .data          0x00000000        0x0 ./gecko_sdk_4.4.1/platform/service/device_init/src/sl_device_init_nvic.o
 .bss           0x00000000        0x0 ./gecko_sdk_4.4.1/platform/service/device_init/src/sl_device_init_nvic.o
 .text          0x00000000        0x0 ./gecko_sdk_4.4.1/platform/service/iostream/src/sl_iostream.o
 .data          0x00000000        0x0 ./gecko_sdk_4.4.1/platform/service/iostream/src/sl_iostream.o
 .bss           0x00000000        0x0 ./gecko_sdk_4.4.1/platform/service/iostream/src/sl_iostream.o
 .text.sl_iostream_putchar
                0x00000000       0x16 ./gecko_sdk_4.4.1/platform/service/iostream/src/sl_iostream.o
 .text.sl_iostream_getchar
                0x00000000        0x8 ./gecko_sdk_4.4.1/platform/service/iostream/src/sl_iostream.o
 .text.sl_iostream_vprintf
                0x00000000       0x44 ./gecko_sdk_4.4.1/platform/service/iostream/src/sl_iostream.o
 .text.sl_iostream_printf
                0x00000000       0x1a ./gecko_sdk_4.4.1/platform/service/iostream/src/sl_iostream.o
 .bss.sl_iostream_null
                0x00000000        0xc ./gecko_sdk_4.4.1/platform/service/iostream/src/sl_iostream.o
 .text          0x00000000        0x0 ./gecko_sdk_4.4.1/platform/service/iostream/src/sl_iostream_eusart.o
 .data          0x00000000        0x0 ./gecko_sdk_4.4.1/platform/service/iostream/src/sl_iostream_eusart.o
 .bss           0x00000000        0x0 ./gecko_sdk_4.4.1/platform/service/iostream/src/sl_iostream_eusart.o
 .text          0x00000000        0x0 ./gecko_sdk_4.4.1/platform/service/iostream/src/sl_iostream_retarget_stdio.o
 .data          0x00000000        0x0 ./gecko_sdk_4.4.1/platform/service/iostream/src/sl_iostream_retarget_stdio.o
 .bss           0x00000000        0x0 ./gecko_sdk_4.4.1/platform/service/iostream/src/sl_iostream_retarget_stdio.o
 .text._getpid  0x00000000        0x4 ./gecko_sdk_4.4.1/platform/service/iostream/src/sl_iostream_retarget_stdio.o
 .text._kill    0x00000000        0x6 ./gecko_sdk_4.4.1/platform/service/iostream/src/sl_iostream_retarget_stdio.o
 .text          0x00000000        0x0 ./gecko_sdk_4.4.1/platform/service/iostream/src/sl_iostream_stdlib_config.o
 .data          0x00000000        0x0 ./gecko_sdk_4.4.1/platform/service/iostream/src/sl_iostream_stdlib_config.o
 .bss           0x00000000        0x0 ./gecko_sdk_4.4.1/platform/service/iostream/src/sl_iostream_stdlib_config.o
 .text          0x00000000        0x0 ./gecko_sdk_4.4.1/platform/service/iostream/src/sl_iostream_uart.o
 .data          0x00000000        0x0 ./gecko_sdk_4.4.1/platform/service/iostream/src/sl_iostream_uart.o
 .bss           0x00000000        0x0 ./gecko_sdk_4.4.1/platform/service/iostream/src/sl_iostream_uart.o
 .text          0x00000000        0x0 ./gecko_sdk_4.4.1/platform/service/sleeptimer/src/sl_sleeptimer.o
 .data          0x00000000        0x0 ./gecko_sdk_4.4.1/platform/service/sleeptimer/src/sl_sleeptimer.o
 .bss           0x00000000        0x0 ./gecko_sdk_4.4.1/platform/service/sleeptimer/src/sl_sleeptimer.o
 .text.sl_sleeptimer_stop_timer
                0x00000000       0x60 ./gecko_sdk_4.4.1/platform/service/sleeptimer/src/sl_sleeptimer.o
 .text.sl_sleeptimer_restart_timer
                0x00000000       0x3e ./gecko_sdk_4.4.1/platform/service/sleeptimer/src/sl_sleeptimer.o
 .text.sl_sleeptimer_restart_periodic_timer
                0x00000000       0x38 ./gecko_sdk_4.4.1/platform/service/sleeptimer/src/sl_sleeptimer.o
 .text.sl_sleeptimer_get_timer_time_remaining
                0x00000000       0x70 ./gecko_sdk_4.4.1/platform/service/sleeptimer/src/sl_sleeptimer.o
 .text.sl_sleeptimer_get_remaining_time_of_first_timer
                0x00000000       0x60 ./gecko_sdk_4.4.1/platform/service/sleeptimer/src/sl_sleeptimer.o
 .text.sl_sleeptimer_get_tick_count
                0x00000000       0x18 ./gecko_sdk_4.4.1/platform/service/sleeptimer/src/sl_sleeptimer.o
 .text.sli_sleeptimer_is_power_manager_timer_next_to_expire
                0x00000000       0x28 ./gecko_sdk_4.4.1/platform/service/sleeptimer/src/sl_sleeptimer.o
 .text.sl_sleeptimer_get_tick_count64
                0x00000000       0x34 ./gecko_sdk_4.4.1/platform/service/sleeptimer/src/sl_sleeptimer.o
 .text.sl_sleeptimer_get_timer_frequency
                0x00000000        0xc ./gecko_sdk_4.4.1/platform/service/sleeptimer/src/sl_sleeptimer.o
 .text.sl_sleeptimer_ms32_to_tick
                0x00000000       0x3c ./gecko_sdk_4.4.1/platform/service/sleeptimer/src/sl_sleeptimer.o
 .text.sl_sleeptimer_start_periodic_timer_ms
                0x00000000       0x78 ./gecko_sdk_4.4.1/platform/service/sleeptimer/src/sl_sleeptimer.o
 .text.sl_sleeptimer_restart_periodic_timer_ms
                0x00000000       0x64 ./gecko_sdk_4.4.1/platform/service/sleeptimer/src/sl_sleeptimer.o
 .text.sl_sleeptimer_get_max_ms32_conversion
                0x00000000        0xc ./gecko_sdk_4.4.1/platform/service/sleeptimer/src/sl_sleeptimer.o
 .text.sl_sleeptimer_tick_to_ms
                0x00000000       0x44 ./gecko_sdk_4.4.1/platform/service/sleeptimer/src/sl_sleeptimer.o
 .text.sl_sleeptimer_tick64_to_ms
                0x00000000       0x64 ./gecko_sdk_4.4.1/platform/service/sleeptimer/src/sl_sleeptimer.o
 .text.sl_sleeptimer_is_power_manager_early_restore_timer_latest_to_expire
                0x00000000       0x18 ./gecko_sdk_4.4.1/platform/service/sleeptimer/src/sl_sleeptimer.o
 .text.sl_sleeptimer_get_clock_accuracy
                0x00000000        0x4 ./gecko_sdk_4.4.1/platform/service/sleeptimer/src/sl_sleeptimer.o
 .text.sli_sleeptimer_update_sleep_on_isr_exit
                0x00000000        0xc ./gecko_sdk_4.4.1/platform/service/sleeptimer/src/sl_sleeptimer.o
 .text.sli_sleeptimer_get_capture
                0x00000000        0x4 ./gecko_sdk_4.4.1/platform/service/sleeptimer/src/sl_sleeptimer.o
 .text.sli_sleeptimer_reset_prs_signal
                0x00000000        0x4 ./gecko_sdk_4.4.1/platform/service/sleeptimer/src/sl_sleeptimer.o
 .text          0x00000000        0x0 ./gecko_sdk_4.4.1/platform/service/sleeptimer/src/sl_sleeptimer_hal_burtc.o
 .data          0x00000000        0x0 ./gecko_sdk_4.4.1/platform/service/sleeptimer/src/sl_sleeptimer_hal_burtc.o
 .bss           0x00000000        0x0 ./gecko_sdk_4.4.1/platform/service/sleeptimer/src/sl_sleeptimer_hal_burtc.o
 .debug_info    0x00000000       0x6b ./gecko_sdk_4.4.1/platform/service/sleeptimer/src/sl_sleeptimer_hal_burtc.o
 .debug_abbrev  0x00000000       0x26 ./gecko_sdk_4.4.1/platform/service/sleeptimer/src/sl_sleeptimer_hal_burtc.o
 .debug_aranges
                0x00000000       0x18 ./gecko_sdk_4.4.1/platform/service/sleeptimer/src/sl_sleeptimer_hal_burtc.o
 .debug_line    0x00000000       0x6d ./gecko_sdk_4.4.1/platform/service/sleeptimer/src/sl_sleeptimer_hal_burtc.o
 .debug_str     0x00000000      0x1f0 ./gecko_sdk_4.4.1/platform/service/sleeptimer/src/sl_sleeptimer_hal_burtc.o
 .comment       0x00000000       0x46 ./gecko_sdk_4.4.1/platform/service/sleeptimer/src/sl_sleeptimer_hal_burtc.o
 .ARM.attributes
                0x00000000       0x3a ./gecko_sdk_4.4.1/platform/service/sleeptimer/src/sl_sleeptimer_hal_burtc.o
 .text          0x00000000        0x0 ./gecko_sdk_4.4.1/platform/service/sleeptimer/src/sl_sleeptimer_hal_sysrtc.o
 .data          0x00000000        0x0 ./gecko_sdk_4.4.1/platform/service/sleeptimer/src/sl_sleeptimer_hal_sysrtc.o
 .bss           0x00000000        0x0 ./gecko_sdk_4.4.1/platform/service/sleeptimer/src/sl_sleeptimer_hal_sysrtc.o
 .text.sleeptimer_hal_set_compare_prs_hfxo_startup
                0x00000000       0x58 ./gecko_sdk_4.4.1/platform/service/sleeptimer/src/sl_sleeptimer_hal_sysrtc.o
 .text.sli_sleeptimer_hal_is_int_status_set
                0x00000000       0x22 ./gecko_sdk_4.4.1/platform/service/sleeptimer/src/sl_sleeptimer_hal_sysrtc.o
 .text.sleeptimer_hal_get_clock_accuracy
                0x00000000        0x6 ./gecko_sdk_4.4.1/platform/service/sleeptimer/src/sl_sleeptimer_hal_sysrtc.o
 .text.sleeptimer_hal_get_capture
                0x00000000       0x22 ./gecko_sdk_4.4.1/platform/service/sleeptimer/src/sl_sleeptimer_hal_sysrtc.o
 .text.sleeptimer_hal_reset_prs_signal
                0x00000000        0x8 ./gecko_sdk_4.4.1/platform/service/sleeptimer/src/sl_sleeptimer_hal_sysrtc.o
 .text.sleeptimer_hal_disable_prs_compare_and_capture_channel
                0x00000000       0x28 ./gecko_sdk_4.4.1/platform/service/sleeptimer/src/sl_sleeptimer_hal_sysrtc.o
 .data.cc1_disabled
                0x00000000        0x1 ./gecko_sdk_4.4.1/platform/service/sleeptimer/src/sl_sleeptimer_hal_sysrtc.o
 .text          0x00000000        0x0 ./gecko_sdk_4.4.1/platform/service/sleeptimer/src/sl_sleeptimer_hal_timer.o
 .data          0x00000000        0x0 ./gecko_sdk_4.4.1/platform/service/sleeptimer/src/sl_sleeptimer_hal_timer.o
 .bss           0x00000000        0x0 ./gecko_sdk_4.4.1/platform/service/sleeptimer/src/sl_sleeptimer_hal_timer.o
 .debug_info    0x00000000       0x6b ./gecko_sdk_4.4.1/platform/service/sleeptimer/src/sl_sleeptimer_hal_timer.o
 .debug_abbrev  0x00000000       0x26 ./gecko_sdk_4.4.1/platform/service/sleeptimer/src/sl_sleeptimer_hal_timer.o
 .debug_aranges
                0x00000000       0x18 ./gecko_sdk_4.4.1/platform/service/sleeptimer/src/sl_sleeptimer_hal_timer.o
 .debug_line    0x00000000       0x6d ./gecko_sdk_4.4.1/platform/service/sleeptimer/src/sl_sleeptimer_hal_timer.o
 .debug_str     0x00000000      0x1f0 ./gecko_sdk_4.4.1/platform/service/sleeptimer/src/sl_sleeptimer_hal_timer.o
 .comment       0x00000000       0x46 ./gecko_sdk_4.4.1/platform/service/sleeptimer/src/sl_sleeptimer_hal_timer.o
 .ARM.attributes
                0x00000000       0x3a ./gecko_sdk_4.4.1/platform/service/sleeptimer/src/sl_sleeptimer_hal_timer.o
 .text          0x00000000        0x0 ./gecko_sdk_4.4.1/platform/service/system/src/sl_system_init.o
 .data          0x00000000        0x0 ./gecko_sdk_4.4.1/platform/service/system/src/sl_system_init.o
 .bss           0x00000000        0x0 ./gecko_sdk_4.4.1/platform/service/system/src/sl_system_init.o
 .text          0x00000000        0x0 ./gecko_sdk_4.4.1/platform/service/system/src/sl_system_process_action.o
 .data          0x00000000        0x0 ./gecko_sdk_4.4.1/platform/service/system/src/sl_system_process_action.o
 .bss           0x00000000        0x0 ./gecko_sdk_4.4.1/platform/service/system/src/sl_system_process_action.o
 .text          0x00000000        0x0 ./gecko_sdk_4.4.1/platform/service/udelay/src/sl_udelay.o
 .data          0x00000000        0x0 ./gecko_sdk_4.4.1/platform/service/udelay/src/sl_udelay.o
 .bss           0x00000000        0x0 ./gecko_sdk_4.4.1/platform/service/udelay/src/sl_udelay.o
 .data          0x00000000        0x0 ./gecko_sdk_4.4.1/platform/service/udelay/src/sl_udelay_armv6m_gcc.o
 .bss           0x00000000        0x0 ./gecko_sdk_4.4.1/platform/service/udelay/src/sl_udelay_armv6m_gcc.o
 .text          0x00000000       0xa0 c:/siliconlabs/simplicitystudio/v5/developer/toolchains/gnu_arm/12.2.rel1_2023.7/bin/../lib/gcc/arm-none-eabi/12.2.1/thumb/v8-m.main+fp/hard\libgcc.a(_aeabi_ldivmod.o)
 .data          0x00000000        0x0 c:/siliconlabs/simplicitystudio/v5/developer/toolchains/gnu_arm/12.2.rel1_2023.7/bin/../lib/gcc/arm-none-eabi/12.2.1/thumb/v8-m.main+fp/hard\libgcc.a(_aeabi_ldivmod.o)
 .bss           0x00000000        0x0 c:/siliconlabs/simplicitystudio/v5/developer/toolchains/gnu_arm/12.2.rel1_2023.7/bin/../lib/gcc/arm-none-eabi/12.2.1/thumb/v8-m.main+fp/hard\libgcc.a(_aeabi_ldivmod.o)
 .debug_line_str
                0x00000000       0xcd c:/siliconlabs/simplicitystudio/v5/developer/toolchains/gnu_arm/12.2.rel1_2023.7/bin/../lib/gcc/arm-none-eabi/12.2.1/thumb/v8-m.main+fp/hard\libgcc.a(_aeabi_ldivmod.o)
 .debug_frame   0x00000000       0x44 c:/siliconlabs/simplicitystudio/v5/developer/toolchains/gnu_arm/12.2.rel1_2023.7/bin/../lib/gcc/arm-none-eabi/12.2.1/thumb/v8-m.main+fp/hard\libgcc.a(_aeabi_ldivmod.o)
 .ARM.attributes
                0x00000000       0x26 c:/siliconlabs/simplicitystudio/v5/developer/toolchains/gnu_arm/12.2.rel1_2023.7/bin/../lib/gcc/arm-none-eabi/12.2.1/thumb/v8-m.main+fp/hard\libgcc.a(_aeabi_ldivmod.o)
 .data          0x00000000        0x0 c:/siliconlabs/simplicitystudio/v5/developer/toolchains/gnu_arm/12.2.rel1_2023.7/bin/../lib/gcc/arm-none-eabi/12.2.1/thumb/v8-m.main+fp/hard\libgcc.a(_aeabi_uldivmod.o)
 .bss           0x00000000        0x0 c:/siliconlabs/simplicitystudio/v5/developer/toolchains/gnu_arm/12.2.rel1_2023.7/bin/../lib/gcc/arm-none-eabi/12.2.1/thumb/v8-m.main+fp/hard\libgcc.a(_aeabi_uldivmod.o)
 .text          0x00000000        0x0 c:/siliconlabs/simplicitystudio/v5/developer/toolchains/gnu_arm/12.2.rel1_2023.7/bin/../lib/gcc/arm-none-eabi/12.2.1/thumb/v8-m.main+fp/hard\libgcc.a(_udivmoddi4.o)
 .data          0x00000000        0x0 c:/siliconlabs/simplicitystudio/v5/developer/toolchains/gnu_arm/12.2.rel1_2023.7/bin/../lib/gcc/arm-none-eabi/12.2.1/thumb/v8-m.main+fp/hard\libgcc.a(_udivmoddi4.o)
 .bss           0x00000000        0x0 c:/siliconlabs/simplicitystudio/v5/developer/toolchains/gnu_arm/12.2.rel1_2023.7/bin/../lib/gcc/arm-none-eabi/12.2.1/thumb/v8-m.main+fp/hard\libgcc.a(_udivmoddi4.o)
 .ARM.extab.text.__udivmoddi4
                0x00000000        0x0 c:/siliconlabs/simplicitystudio/v5/developer/toolchains/gnu_arm/12.2.rel1_2023.7/bin/../lib/gcc/arm-none-eabi/12.2.1/thumb/v8-m.main+fp/hard\libgcc.a(_udivmoddi4.o)
 .data          0x00000000        0x0 c:/siliconlabs/simplicitystudio/v5/developer/toolchains/gnu_arm/12.2.rel1_2023.7/bin/../lib/gcc/arm-none-eabi/12.2.1/thumb/v8-m.main+fp/hard\libgcc.a(_dvmd_tls.o)
 .bss           0x00000000        0x0 c:/siliconlabs/simplicitystudio/v5/developer/toolchains/gnu_arm/12.2.rel1_2023.7/bin/../lib/gcc/arm-none-eabi/12.2.1/thumb/v8-m.main+fp/hard\libgcc.a(_dvmd_tls.o)
 .text          0x00000000        0x0 c:/siliconlabs/simplicitystudio/v5/developer/toolchains/gnu_arm/12.2.rel1_2023.7/bin/../lib/gcc/arm-none-eabi/12.2.1/thumb/v8-m.main+fp/hard\libc_nano.a(libc_a-exit.o)
 .data          0x00000000        0x0 c:/siliconlabs/simplicitystudio/v5/developer/toolchains/gnu_arm/12.2.rel1_2023.7/bin/../lib/gcc/arm-none-eabi/12.2.1/thumb/v8-m.main+fp/hard\libc_nano.a(libc_a-exit.o)
 .bss           0x00000000        0x0 c:/siliconlabs/simplicitystudio/v5/developer/toolchains/gnu_arm/12.2.rel1_2023.7/bin/../lib/gcc/arm-none-eabi/12.2.1/thumb/v8-m.main+fp/hard\libc_nano.a(libc_a-exit.o)
 .text          0x00000000        0x0 c:/siliconlabs/simplicitystudio/v5/developer/toolchains/gnu_arm/12.2.rel1_2023.7/bin/../lib/gcc/arm-none-eabi/12.2.1/thumb/v8-m.main+fp/hard\libc_nano.a(libc_a-ctype_.o)
 .data          0x00000000        0x0 c:/siliconlabs/simplicitystudio/v5/developer/toolchains/gnu_arm/12.2.rel1_2023.7/bin/../lib/gcc/arm-none-eabi/12.2.1/thumb/v8-m.main+fp/hard\libc_nano.a(libc_a-ctype_.o)
 .bss           0x00000000        0x0 c:/siliconlabs/simplicitystudio/v5/developer/toolchains/gnu_arm/12.2.rel1_2023.7/bin/../lib/gcc/arm-none-eabi/12.2.1/thumb/v8-m.main+fp/hard\libc_nano.a(libc_a-ctype_.o)
 .rodata._ctype_
                0x00000000      0x101 c:/siliconlabs/simplicitystudio/v5/developer/toolchains/gnu_arm/12.2.rel1_2023.7/bin/../lib/gcc/arm-none-eabi/12.2.1/thumb/v8-m.main+fp/hard\libc_nano.a(libc_a-ctype_.o)
 .ARM.attributes
                0x00000000       0x38 c:/siliconlabs/simplicitystudio/v5/developer/toolchains/gnu_arm/12.2.rel1_2023.7/bin/../lib/gcc/arm-none-eabi/12.2.1/thumb/v8-m.main+fp/hard\libc_nano.a(libc_a-ctype_.o)
 .text          0x00000000        0x0 c:/siliconlabs/simplicitystudio/v5/developer/toolchains/gnu_arm/12.2.rel1_2023.7/bin/../lib/gcc/arm-none-eabi/12.2.1/thumb/v8-m.main+fp/hard\libc_nano.a(libc_a-findfp.o)
 .data          0x00000000        0x0 c:/siliconlabs/simplicitystudio/v5/developer/toolchains/gnu_arm/12.2.rel1_2023.7/bin/../lib/gcc/arm-none-eabi/12.2.1/thumb/v8-m.main+fp/hard\libc_nano.a(libc_a-findfp.o)
 .bss           0x00000000        0x0 c:/siliconlabs/simplicitystudio/v5/developer/toolchains/gnu_arm/12.2.rel1_2023.7/bin/../lib/gcc/arm-none-eabi/12.2.1/thumb/v8-m.main+fp/hard\libc_nano.a(libc_a-findfp.o)
 .text.__fp_lock
                0x00000000       0x18 c:/siliconlabs/simplicitystudio/v5/developer/toolchains/gnu_arm/12.2.rel1_2023.7/bin/../lib/gcc/arm-none-eabi/12.2.1/thumb/v8-m.main+fp/hard\libc_nano.a(libc_a-findfp.o)
 .text.__fp_unlock
                0x00000000       0x18 c:/siliconlabs/simplicitystudio/v5/developer/toolchains/gnu_arm/12.2.rel1_2023.7/bin/../lib/gcc/arm-none-eabi/12.2.1/thumb/v8-m.main+fp/hard\libc_nano.a(libc_a-findfp.o)
 .text.__sfp    0x00000000       0xa4 c:/siliconlabs/simplicitystudio/v5/developer/toolchains/gnu_arm/12.2.rel1_2023.7/bin/../lib/gcc/arm-none-eabi/12.2.1/thumb/v8-m.main+fp/hard\libc_nano.a(libc_a-findfp.o)
 .text.__fp_lock_all
                0x00000000       0x1c c:/siliconlabs/simplicitystudio/v5/developer/toolchains/gnu_arm/12.2.rel1_2023.7/bin/../lib/gcc/arm-none-eabi/12.2.1/thumb/v8-m.main+fp/hard\libc_nano.a(libc_a-findfp.o)
 .text.__fp_unlock_all
                0x00000000       0x1c c:/siliconlabs/simplicitystudio/v5/developer/toolchains/gnu_arm/12.2.rel1_2023.7/bin/../lib/gcc/arm-none-eabi/12.2.1/thumb/v8-m.main+fp/hard\libc_nano.a(libc_a-findfp.o)
 .text          0x00000000        0x0 c:/siliconlabs/simplicitystudio/v5/developer/toolchains/gnu_arm/12.2.rel1_2023.7/bin/../lib/gcc/arm-none-eabi/12.2.1/thumb/v8-m.main+fp/hard\libc_nano.a(libc_a-fwalk.o)
 .data          0x00000000        0x0 c:/siliconlabs/simplicitystudio/v5/developer/toolchains/gnu_arm/12.2.rel1_2023.7/bin/../lib/gcc/arm-none-eabi/12.2.1/thumb/v8-m.main+fp/hard\libc_nano.a(libc_a-fwalk.o)
 .bss           0x00000000        0x0 c:/siliconlabs/simplicitystudio/v5/developer/toolchains/gnu_arm/12.2.rel1_2023.7/bin/../lib/gcc/arm-none-eabi/12.2.1/thumb/v8-m.main+fp/hard\libc_nano.a(libc_a-fwalk.o)
 .text          0x00000000        0x0 c:/siliconlabs/simplicitystudio/v5/developer/toolchains/gnu_arm/12.2.rel1_2023.7/bin/../lib/gcc/arm-none-eabi/12.2.1/thumb/v8-m.main+fp/hard\libc_nano.a(libc_a-printf.o)
 .data          0x00000000        0x0 c:/siliconlabs/simplicitystudio/v5/developer/toolchains/gnu_arm/12.2.rel1_2023.7/bin/../lib/gcc/arm-none-eabi/12.2.1/thumb/v8-m.main+fp/hard\libc_nano.a(libc_a-printf.o)
 .bss           0x00000000        0x0 c:/siliconlabs/simplicitystudio/v5/developer/toolchains/gnu_arm/12.2.rel1_2023.7/bin/../lib/gcc/arm-none-eabi/12.2.1/thumb/v8-m.main+fp/hard\libc_nano.a(libc_a-printf.o)
 .text._printf_r
                0x00000000       0x1c c:/siliconlabs/simplicitystudio/v5/developer/toolchains/gnu_arm/12.2.rel1_2023.7/bin/../lib/gcc/arm-none-eabi/12.2.1/thumb/v8-m.main+fp/hard\libc_nano.a(libc_a-printf.o)
 .text          0x00000000        0x0 c:/siliconlabs/simplicitystudio/v5/developer/toolchains/gnu_arm/12.2.rel1_2023.7/bin/../lib/gcc/arm-none-eabi/12.2.1/thumb/v8-m.main+fp/hard\libc_nano.a(libc_a-puts.o)
 .data          0x00000000        0x0 c:/siliconlabs/simplicitystudio/v5/developer/toolchains/gnu_arm/12.2.rel1_2023.7/bin/../lib/gcc/arm-none-eabi/12.2.1/thumb/v8-m.main+fp/hard\libc_nano.a(libc_a-puts.o)
 .bss           0x00000000        0x0 c:/siliconlabs/simplicitystudio/v5/developer/toolchains/gnu_arm/12.2.rel1_2023.7/bin/../lib/gcc/arm-none-eabi/12.2.1/thumb/v8-m.main+fp/hard\libc_nano.a(libc_a-puts.o)
 .text          0x00000000        0x0 c:/siliconlabs/simplicitystudio/v5/developer/toolchains/gnu_arm/12.2.rel1_2023.7/bin/../lib/gcc/arm-none-eabi/12.2.1/thumb/v8-m.main+fp/hard\libc_nano.a(libc_a-setvbuf.o)
 .data          0x00000000        0x0 c:/siliconlabs/simplicitystudio/v5/developer/toolchains/gnu_arm/12.2.rel1_2023.7/bin/../lib/gcc/arm-none-eabi/12.2.1/thumb/v8-m.main+fp/hard\libc_nano.a(libc_a-setvbuf.o)
 .bss           0x00000000        0x0 c:/siliconlabs/simplicitystudio/v5/developer/toolchains/gnu_arm/12.2.rel1_2023.7/bin/../lib/gcc/arm-none-eabi/12.2.1/thumb/v8-m.main+fp/hard\libc_nano.a(libc_a-setvbuf.o)
 .text          0x00000000        0x0 c:/siliconlabs/simplicitystudio/v5/developer/toolchains/gnu_arm/12.2.rel1_2023.7/bin/../lib/gcc/arm-none-eabi/12.2.1/thumb/v8-m.main+fp/hard\libc_nano.a(libc_a-stdio.o)
 .data          0x00000000        0x0 c:/siliconlabs/simplicitystudio/v5/developer/toolchains/gnu_arm/12.2.rel1_2023.7/bin/../lib/gcc/arm-none-eabi/12.2.1/thumb/v8-m.main+fp/hard\libc_nano.a(libc_a-stdio.o)
 .bss           0x00000000        0x0 c:/siliconlabs/simplicitystudio/v5/developer/toolchains/gnu_arm/12.2.rel1_2023.7/bin/../lib/gcc/arm-none-eabi/12.2.1/thumb/v8-m.main+fp/hard\libc_nano.a(libc_a-stdio.o)
 .text.__seofread
                0x00000000        0x4 c:/siliconlabs/simplicitystudio/v5/developer/toolchains/gnu_arm/12.2.rel1_2023.7/bin/../lib/gcc/arm-none-eabi/12.2.1/thumb/v8-m.main+fp/hard\libc_nano.a(libc_a-stdio.o)
 .text          0x00000000        0x0 c:/siliconlabs/simplicitystudio/v5/developer/toolchains/gnu_arm/12.2.rel1_2023.7/bin/../lib/gcc/arm-none-eabi/12.2.1/thumb/v8-m.main+fp/hard\libc_nano.a(libc_a-vprintf.o)
 .data          0x00000000        0x0 c:/siliconlabs/simplicitystudio/v5/developer/toolchains/gnu_arm/12.2.rel1_2023.7/bin/../lib/gcc/arm-none-eabi/12.2.1/thumb/v8-m.main+fp/hard\libc_nano.a(libc_a-vprintf.o)
 .bss           0x00000000        0x0 c:/siliconlabs/simplicitystudio/v5/developer/toolchains/gnu_arm/12.2.rel1_2023.7/bin/../lib/gcc/arm-none-eabi/12.2.1/thumb/v8-m.main+fp/hard\libc_nano.a(libc_a-vprintf.o)
 .text.vprintf  0x00000000       0x14 c:/siliconlabs/simplicitystudio/v5/developer/toolchains/gnu_arm/12.2.rel1_2023.7/bin/../lib/gcc/arm-none-eabi/12.2.1/thumb/v8-m.main+fp/hard\libc_nano.a(libc_a-vprintf.o)
 .text._vprintf_r
                0x00000000        0xa c:/siliconlabs/simplicitystudio/v5/developer/toolchains/gnu_arm/12.2.rel1_2023.7/bin/../lib/gcc/arm-none-eabi/12.2.1/thumb/v8-m.main+fp/hard\libc_nano.a(libc_a-vprintf.o)
 .debug_frame   0x00000000       0x30 c:/siliconlabs/simplicitystudio/v5/developer/toolchains/gnu_arm/12.2.rel1_2023.7/bin/../lib/gcc/arm-none-eabi/12.2.1/thumb/v8-m.main+fp/hard\libc_nano.a(libc_a-vprintf.o)
 .ARM.attributes
                0x00000000       0x38 c:/siliconlabs/simplicitystudio/v5/developer/toolchains/gnu_arm/12.2.rel1_2023.7/bin/../lib/gcc/arm-none-eabi/12.2.1/thumb/v8-m.main+fp/hard\libc_nano.a(libc_a-vprintf.o)
 .text          0x00000000        0x0 c:/siliconlabs/simplicitystudio/v5/developer/toolchains/gnu_arm/12.2.rel1_2023.7/bin/../lib/gcc/arm-none-eabi/12.2.1/thumb/v8-m.main+fp/hard\libc_nano.a(libc_a-wbuf.o)
 .data          0x00000000        0x0 c:/siliconlabs/simplicitystudio/v5/developer/toolchains/gnu_arm/12.2.rel1_2023.7/bin/../lib/gcc/arm-none-eabi/12.2.1/thumb/v8-m.main+fp/hard\libc_nano.a(libc_a-wbuf.o)
 .bss           0x00000000        0x0 c:/siliconlabs/simplicitystudio/v5/developer/toolchains/gnu_arm/12.2.rel1_2023.7/bin/../lib/gcc/arm-none-eabi/12.2.1/thumb/v8-m.main+fp/hard\libc_nano.a(libc_a-wbuf.o)
 .text.__swbuf  0x00000000       0x10 c:/siliconlabs/simplicitystudio/v5/developer/toolchains/gnu_arm/12.2.rel1_2023.7/bin/../lib/gcc/arm-none-eabi/12.2.1/thumb/v8-m.main+fp/hard\libc_nano.a(libc_a-wbuf.o)
 .text          0x00000000        0x0 c:/siliconlabs/simplicitystudio/v5/developer/toolchains/gnu_arm/12.2.rel1_2023.7/bin/../lib/gcc/arm-none-eabi/12.2.1/thumb/v8-m.main+fp/hard\libc_nano.a(libc_a-wsetup.o)
 .data          0x00000000        0x0 c:/siliconlabs/simplicitystudio/v5/developer/toolchains/gnu_arm/12.2.rel1_2023.7/bin/../lib/gcc/arm-none-eabi/12.2.1/thumb/v8-m.main+fp/hard\libc_nano.a(libc_a-wsetup.o)
 .bss           0x00000000        0x0 c:/siliconlabs/simplicitystudio/v5/developer/toolchains/gnu_arm/12.2.rel1_2023.7/bin/../lib/gcc/arm-none-eabi/12.2.1/thumb/v8-m.main+fp/hard\libc_nano.a(libc_a-wsetup.o)
 .text          0x00000000        0x0 c:/siliconlabs/simplicitystudio/v5/developer/toolchains/gnu_arm/12.2.rel1_2023.7/bin/../lib/gcc/arm-none-eabi/12.2.1/thumb/v8-m.main+fp/hard\libc_nano.a(libc_a-memset.o)
 .data          0x00000000        0x0 c:/siliconlabs/simplicitystudio/v5/developer/toolchains/gnu_arm/12.2.rel1_2023.7/bin/../lib/gcc/arm-none-eabi/12.2.1/thumb/v8-m.main+fp/hard\libc_nano.a(libc_a-memset.o)
 .bss           0x00000000        0x0 c:/siliconlabs/simplicitystudio/v5/developer/toolchains/gnu_arm/12.2.rel1_2023.7/bin/../lib/gcc/arm-none-eabi/12.2.1/thumb/v8-m.main+fp/hard\libc_nano.a(libc_a-memset.o)
 .text          0x00000000        0x0 c:/siliconlabs/simplicitystudio/v5/developer/toolchains/gnu_arm/12.2.rel1_2023.7/bin/../lib/gcc/arm-none-eabi/12.2.1/thumb/v8-m.main+fp/hard\libc_nano.a(libc_a-closer.o)
 .data          0x00000000        0x0 c:/siliconlabs/simplicitystudio/v5/developer/toolchains/gnu_arm/12.2.rel1_2023.7/bin/../lib/gcc/arm-none-eabi/12.2.1/thumb/v8-m.main+fp/hard\libc_nano.a(libc_a-closer.o)
 .bss           0x00000000        0x0 c:/siliconlabs/simplicitystudio/v5/developer/toolchains/gnu_arm/12.2.rel1_2023.7/bin/../lib/gcc/arm-none-eabi/12.2.1/thumb/v8-m.main+fp/hard\libc_nano.a(libc_a-closer.o)
 .text          0x00000000        0x0 c:/siliconlabs/simplicitystudio/v5/developer/toolchains/gnu_arm/12.2.rel1_2023.7/bin/../lib/gcc/arm-none-eabi/12.2.1/thumb/v8-m.main+fp/hard\libc_nano.a(libc_a-reent.o)
 .data          0x00000000        0x0 c:/siliconlabs/simplicitystudio/v5/developer/toolchains/gnu_arm/12.2.rel1_2023.7/bin/../lib/gcc/arm-none-eabi/12.2.1/thumb/v8-m.main+fp/hard\libc_nano.a(libc_a-reent.o)
 .bss           0x00000000        0x0 c:/siliconlabs/simplicitystudio/v5/developer/toolchains/gnu_arm/12.2.rel1_2023.7/bin/../lib/gcc/arm-none-eabi/12.2.1/thumb/v8-m.main+fp/hard\libc_nano.a(libc_a-reent.o)
 .text._reclaim_reent
                0x00000000       0xac c:/siliconlabs/simplicitystudio/v5/developer/toolchains/gnu_arm/12.2.rel1_2023.7/bin/../lib/gcc/arm-none-eabi/12.2.1/thumb/v8-m.main+fp/hard\libc_nano.a(libc_a-reent.o)
 .text          0x00000000        0x0 c:/siliconlabs/simplicitystudio/v5/developer/toolchains/gnu_arm/12.2.rel1_2023.7/bin/../lib/gcc/arm-none-eabi/12.2.1/thumb/v8-m.main+fp/hard\libc_nano.a(libc_a-impure.o)
 .data          0x00000000        0x0 c:/siliconlabs/simplicitystudio/v5/developer/toolchains/gnu_arm/12.2.rel1_2023.7/bin/../lib/gcc/arm-none-eabi/12.2.1/thumb/v8-m.main+fp/hard\libc_nano.a(libc_a-impure.o)
 .bss           0x00000000        0x0 c:/siliconlabs/simplicitystudio/v5/developer/toolchains/gnu_arm/12.2.rel1_2023.7/bin/../lib/gcc/arm-none-eabi/12.2.1/thumb/v8-m.main+fp/hard\libc_nano.a(libc_a-impure.o)
 .text          0x00000000        0x0 c:/siliconlabs/simplicitystudio/v5/developer/toolchains/gnu_arm/12.2.rel1_2023.7/bin/../lib/gcc/arm-none-eabi/12.2.1/thumb/v8-m.main+fp/hard\libc_nano.a(libc_a-lseekr.o)
 .data          0x00000000        0x0 c:/siliconlabs/simplicitystudio/v5/developer/toolchains/gnu_arm/12.2.rel1_2023.7/bin/../lib/gcc/arm-none-eabi/12.2.1/thumb/v8-m.main+fp/hard\libc_nano.a(libc_a-lseekr.o)
 .bss           0x00000000        0x0 c:/siliconlabs/simplicitystudio/v5/developer/toolchains/gnu_arm/12.2.rel1_2023.7/bin/../lib/gcc/arm-none-eabi/12.2.1/thumb/v8-m.main+fp/hard\libc_nano.a(libc_a-lseekr.o)
 .text          0x00000000        0x0 c:/siliconlabs/simplicitystudio/v5/developer/toolchains/gnu_arm/12.2.rel1_2023.7/bin/../lib/gcc/arm-none-eabi/12.2.1/thumb/v8-m.main+fp/hard\libc_nano.a(libc_a-readr.o)
 .data          0x00000000        0x0 c:/siliconlabs/simplicitystudio/v5/developer/toolchains/gnu_arm/12.2.rel1_2023.7/bin/../lib/gcc/arm-none-eabi/12.2.1/thumb/v8-m.main+fp/hard\libc_nano.a(libc_a-readr.o)
 .bss           0x00000000        0x0 c:/siliconlabs/simplicitystudio/v5/developer/toolchains/gnu_arm/12.2.rel1_2023.7/bin/../lib/gcc/arm-none-eabi/12.2.1/thumb/v8-m.main+fp/hard\libc_nano.a(libc_a-readr.o)
 .text          0x00000000        0x0 c:/siliconlabs/simplicitystudio/v5/developer/toolchains/gnu_arm/12.2.rel1_2023.7/bin/../lib/gcc/arm-none-eabi/12.2.1/thumb/v8-m.main+fp/hard\libc_nano.a(libc_a-writer.o)
 .data          0x00000000        0x0 c:/siliconlabs/simplicitystudio/v5/developer/toolchains/gnu_arm/12.2.rel1_2023.7/bin/../lib/gcc/arm-none-eabi/12.2.1/thumb/v8-m.main+fp/hard\libc_nano.a(libc_a-writer.o)
 .bss           0x00000000        0x0 c:/siliconlabs/simplicitystudio/v5/developer/toolchains/gnu_arm/12.2.rel1_2023.7/bin/../lib/gcc/arm-none-eabi/12.2.1/thumb/v8-m.main+fp/hard\libc_nano.a(libc_a-writer.o)
 .text          0x00000000        0x0 c:/siliconlabs/simplicitystudio/v5/developer/toolchains/gnu_arm/12.2.rel1_2023.7/bin/../lib/gcc/arm-none-eabi/12.2.1/thumb/v8-m.main+fp/hard\libc_nano.a(libc_a-init.o)
 .data          0x00000000        0x0 c:/siliconlabs/simplicitystudio/v5/developer/toolchains/gnu_arm/12.2.rel1_2023.7/bin/../lib/gcc/arm-none-eabi/12.2.1/thumb/v8-m.main+fp/hard\libc_nano.a(libc_a-init.o)
 .bss           0x00000000        0x0 c:/siliconlabs/simplicitystudio/v5/developer/toolchains/gnu_arm/12.2.rel1_2023.7/bin/../lib/gcc/arm-none-eabi/12.2.1/thumb/v8-m.main+fp/hard\libc_nano.a(libc_a-init.o)
 .text          0x00000000        0x0 c:/siliconlabs/simplicitystudio/v5/developer/toolchains/gnu_arm/12.2.rel1_2023.7/bin/../lib/gcc/arm-none-eabi/12.2.1/thumb/v8-m.main+fp/hard\libc_nano.a(libc_a-lock.o)
 .data          0x00000000        0x0 c:/siliconlabs/simplicitystudio/v5/developer/toolchains/gnu_arm/12.2.rel1_2023.7/bin/../lib/gcc/arm-none-eabi/12.2.1/thumb/v8-m.main+fp/hard\libc_nano.a(libc_a-lock.o)
 .bss           0x00000000        0x0 c:/siliconlabs/simplicitystudio/v5/developer/toolchains/gnu_arm/12.2.rel1_2023.7/bin/../lib/gcc/arm-none-eabi/12.2.1/thumb/v8-m.main+fp/hard\libc_nano.a(libc_a-lock.o)
 .text.__retarget_lock_init
                0x00000000        0x2 c:/siliconlabs/simplicitystudio/v5/developer/toolchains/gnu_arm/12.2.rel1_2023.7/bin/../lib/gcc/arm-none-eabi/12.2.1/thumb/v8-m.main+fp/hard\libc_nano.a(libc_a-lock.o)
 .text.__retarget_lock_close
                0x00000000        0x2 c:/siliconlabs/simplicitystudio/v5/developer/toolchains/gnu_arm/12.2.rel1_2023.7/bin/../lib/gcc/arm-none-eabi/12.2.1/thumb/v8-m.main+fp/hard\libc_nano.a(libc_a-lock.o)
 .text.__retarget_lock_close_recursive
                0x00000000        0x2 c:/siliconlabs/simplicitystudio/v5/developer/toolchains/gnu_arm/12.2.rel1_2023.7/bin/../lib/gcc/arm-none-eabi/12.2.1/thumb/v8-m.main+fp/hard\libc_nano.a(libc_a-lock.o)
 .text.__retarget_lock_acquire
                0x00000000        0x2 c:/siliconlabs/simplicitystudio/v5/developer/toolchains/gnu_arm/12.2.rel1_2023.7/bin/../lib/gcc/arm-none-eabi/12.2.1/thumb/v8-m.main+fp/hard\libc_nano.a(libc_a-lock.o)
 .text.__retarget_lock_try_acquire
                0x00000000        0x4 c:/siliconlabs/simplicitystudio/v5/developer/toolchains/gnu_arm/12.2.rel1_2023.7/bin/../lib/gcc/arm-none-eabi/12.2.1/thumb/v8-m.main+fp/hard\libc_nano.a(libc_a-lock.o)
 .text.__retarget_lock_try_acquire_recursive
                0x00000000        0x4 c:/siliconlabs/simplicitystudio/v5/developer/toolchains/gnu_arm/12.2.rel1_2023.7/bin/../lib/gcc/arm-none-eabi/12.2.1/thumb/v8-m.main+fp/hard\libc_nano.a(libc_a-lock.o)
 .text.__retarget_lock_release
                0x00000000        0x2 c:/siliconlabs/simplicitystudio/v5/developer/toolchains/gnu_arm/12.2.rel1_2023.7/bin/../lib/gcc/arm-none-eabi/12.2.1/thumb/v8-m.main+fp/hard\libc_nano.a(libc_a-lock.o)
 .bss.__lock___arc4random_mutex
                0x00000000        0x1 c:/siliconlabs/simplicitystudio/v5/developer/toolchains/gnu_arm/12.2.rel1_2023.7/bin/../lib/gcc/arm-none-eabi/12.2.1/thumb/v8-m.main+fp/hard\libc_nano.a(libc_a-lock.o)
 .bss.__lock___dd_hash_mutex
                0x00000000        0x1 c:/siliconlabs/simplicitystudio/v5/developer/toolchains/gnu_arm/12.2.rel1_2023.7/bin/../lib/gcc/arm-none-eabi/12.2.1/thumb/v8-m.main+fp/hard\libc_nano.a(libc_a-lock.o)
 .bss.__lock___tz_mutex
                0x00000000        0x1 c:/siliconlabs/simplicitystudio/v5/developer/toolchains/gnu_arm/12.2.rel1_2023.7/bin/../lib/gcc/arm-none-eabi/12.2.1/thumb/v8-m.main+fp/hard\libc_nano.a(libc_a-lock.o)
 .bss.__lock___env_recursive_mutex
                0x00000000        0x1 c:/siliconlabs/simplicitystudio/v5/developer/toolchains/gnu_arm/12.2.rel1_2023.7/bin/../lib/gcc/arm-none-eabi/12.2.1/thumb/v8-m.main+fp/hard\libc_nano.a(libc_a-lock.o)
 .bss.__lock___at_quick_exit_mutex
                0x00000000        0x1 c:/siliconlabs/simplicitystudio/v5/developer/toolchains/gnu_arm/12.2.rel1_2023.7/bin/../lib/gcc/arm-none-eabi/12.2.1/thumb/v8-m.main+fp/hard\libc_nano.a(libc_a-lock.o)
 .bss.__lock___atexit_recursive_mutex
                0x00000000        0x1 c:/siliconlabs/simplicitystudio/v5/developer/toolchains/gnu_arm/12.2.rel1_2023.7/bin/../lib/gcc/arm-none-eabi/12.2.1/thumb/v8-m.main+fp/hard\libc_nano.a(libc_a-lock.o)
 .text          0x00000000       0x14 c:/siliconlabs/simplicitystudio/v5/developer/toolchains/gnu_arm/12.2.rel1_2023.7/bin/../lib/gcc/arm-none-eabi/12.2.1/thumb/v8-m.main+fp/hard\libc_nano.a(libc_a-strcmp.o)
 .data          0x00000000        0x0 c:/siliconlabs/simplicitystudio/v5/developer/toolchains/gnu_arm/12.2.rel1_2023.7/bin/../lib/gcc/arm-none-eabi/12.2.1/thumb/v8-m.main+fp/hard\libc_nano.a(libc_a-strcmp.o)
 .bss           0x00000000        0x0 c:/siliconlabs/simplicitystudio/v5/developer/toolchains/gnu_arm/12.2.rel1_2023.7/bin/../lib/gcc/arm-none-eabi/12.2.1/thumb/v8-m.main+fp/hard\libc_nano.a(libc_a-strcmp.o)
 .debug_line_str
                0x00000000       0xee c:/siliconlabs/simplicitystudio/v5/developer/toolchains/gnu_arm/12.2.rel1_2023.7/bin/../lib/gcc/arm-none-eabi/12.2.1/thumb/v8-m.main+fp/hard\libc_nano.a(libc_a-strcmp.o)
 .debug_frame   0x00000000       0x20 c:/siliconlabs/simplicitystudio/v5/developer/toolchains/gnu_arm/12.2.rel1_2023.7/bin/../lib/gcc/arm-none-eabi/12.2.1/thumb/v8-m.main+fp/hard\libc_nano.a(libc_a-strcmp.o)
 .ARM.attributes
                0x00000000       0x24 c:/siliconlabs/simplicitystudio/v5/developer/toolchains/gnu_arm/12.2.rel1_2023.7/bin/../lib/gcc/arm-none-eabi/12.2.1/thumb/v8-m.main+fp/hard\libc_nano.a(libc_a-strcmp.o)
 .text          0x00000000        0x0 c:/siliconlabs/simplicitystudio/v5/developer/toolchains/gnu_arm/12.2.rel1_2023.7/bin/../lib/gcc/arm-none-eabi/12.2.1/thumb/v8-m.main+fp/hard\libc_nano.a(libc_a-memcpy-stub.o)
 .data          0x00000000        0x0 c:/siliconlabs/simplicitystudio/v5/developer/toolchains/gnu_arm/12.2.rel1_2023.7/bin/../lib/gcc/arm-none-eabi/12.2.1/thumb/v8-m.main+fp/hard\libc_nano.a(libc_a-memcpy-stub.o)
 .bss           0x00000000        0x0 c:/siliconlabs/simplicitystudio/v5/developer/toolchains/gnu_arm/12.2.rel1_2023.7/bin/../lib/gcc/arm-none-eabi/12.2.1/thumb/v8-m.main+fp/hard\libc_nano.a(libc_a-memcpy-stub.o)
 .text          0x00000000        0x0 c:/siliconlabs/simplicitystudio/v5/developer/toolchains/gnu_arm/12.2.rel1_2023.7/bin/../lib/gcc/arm-none-eabi/12.2.1/thumb/v8-m.main+fp/hard\libc_nano.a(libc_a-freer.o)
 .data          0x00000000        0x0 c:/siliconlabs/simplicitystudio/v5/developer/toolchains/gnu_arm/12.2.rel1_2023.7/bin/../lib/gcc/arm-none-eabi/12.2.1/thumb/v8-m.main+fp/hard\libc_nano.a(libc_a-freer.o)
 .bss           0x00000000        0x0 c:/siliconlabs/simplicitystudio/v5/developer/toolchains/gnu_arm/12.2.rel1_2023.7/bin/../lib/gcc/arm-none-eabi/12.2.1/thumb/v8-m.main+fp/hard\libc_nano.a(libc_a-freer.o)
 .text          0x00000000        0x0 c:/siliconlabs/simplicitystudio/v5/developer/toolchains/gnu_arm/12.2.rel1_2023.7/bin/../lib/gcc/arm-none-eabi/12.2.1/thumb/v8-m.main+fp/hard\libc_nano.a(libc_a-malloc.o)
 .data          0x00000000        0x0 c:/siliconlabs/simplicitystudio/v5/developer/toolchains/gnu_arm/12.2.rel1_2023.7/bin/../lib/gcc/arm-none-eabi/12.2.1/thumb/v8-m.main+fp/hard\libc_nano.a(libc_a-malloc.o)
 .bss           0x00000000        0x0 c:/siliconlabs/simplicitystudio/v5/developer/toolchains/gnu_arm/12.2.rel1_2023.7/bin/../lib/gcc/arm-none-eabi/12.2.1/thumb/v8-m.main+fp/hard\libc_nano.a(libc_a-malloc.o)
 .text.free     0x00000000       0x10 c:/siliconlabs/simplicitystudio/v5/developer/toolchains/gnu_arm/12.2.rel1_2023.7/bin/../lib/gcc/arm-none-eabi/12.2.1/thumb/v8-m.main+fp/hard\libc_nano.a(libc_a-malloc.o)
 .text          0x00000000        0x0 c:/siliconlabs/simplicitystudio/v5/developer/toolchains/gnu_arm/12.2.rel1_2023.7/bin/../lib/gcc/arm-none-eabi/12.2.1/thumb/v8-m.main+fp/hard\libc_nano.a(libc_a-mallocr.o)
 .data          0x00000000        0x0 c:/siliconlabs/simplicitystudio/v5/developer/toolchains/gnu_arm/12.2.rel1_2023.7/bin/../lib/gcc/arm-none-eabi/12.2.1/thumb/v8-m.main+fp/hard\libc_nano.a(libc_a-mallocr.o)
 .bss           0x00000000        0x0 c:/siliconlabs/simplicitystudio/v5/developer/toolchains/gnu_arm/12.2.rel1_2023.7/bin/../lib/gcc/arm-none-eabi/12.2.1/thumb/v8-m.main+fp/hard\libc_nano.a(libc_a-mallocr.o)
 .text          0x00000000        0x0 c:/siliconlabs/simplicitystudio/v5/developer/toolchains/gnu_arm/12.2.rel1_2023.7/bin/../lib/gcc/arm-none-eabi/12.2.1/thumb/v8-m.main+fp/hard\libc_nano.a(libc_a-mlock.o)
 .data          0x00000000        0x0 c:/siliconlabs/simplicitystudio/v5/developer/toolchains/gnu_arm/12.2.rel1_2023.7/bin/../lib/gcc/arm-none-eabi/12.2.1/thumb/v8-m.main+fp/hard\libc_nano.a(libc_a-mlock.o)
 .bss           0x00000000        0x0 c:/siliconlabs/simplicitystudio/v5/developer/toolchains/gnu_arm/12.2.rel1_2023.7/bin/../lib/gcc/arm-none-eabi/12.2.1/thumb/v8-m.main+fp/hard\libc_nano.a(libc_a-mlock.o)
 .text          0x00000000        0x0 c:/siliconlabs/simplicitystudio/v5/developer/toolchains/gnu_arm/12.2.rel1_2023.7/bin/../lib/gcc/arm-none-eabi/12.2.1/thumb/v8-m.main+fp/hard\libc_nano.a(libc_a-nano-vfprintf.o)
 .data          0x00000000        0x0 c:/siliconlabs/simplicitystudio/v5/developer/toolchains/gnu_arm/12.2.rel1_2023.7/bin/../lib/gcc/arm-none-eabi/12.2.1/thumb/v8-m.main+fp/hard\libc_nano.a(libc_a-nano-vfprintf.o)
 .bss           0x00000000        0x0 c:/siliconlabs/simplicitystudio/v5/developer/toolchains/gnu_arm/12.2.rel1_2023.7/bin/../lib/gcc/arm-none-eabi/12.2.1/thumb/v8-m.main+fp/hard\libc_nano.a(libc_a-nano-vfprintf.o)
 .text.__sprint_r
                0x00000000       0x1a c:/siliconlabs/simplicitystudio/v5/developer/toolchains/gnu_arm/12.2.rel1_2023.7/bin/../lib/gcc/arm-none-eabi/12.2.1/thumb/v8-m.main+fp/hard\libc_nano.a(libc_a-nano-vfprintf.o)
 .text.vfprintf
                0x00000000       0x14 c:/siliconlabs/simplicitystudio/v5/developer/toolchains/gnu_arm/12.2.rel1_2023.7/bin/../lib/gcc/arm-none-eabi/12.2.1/thumb/v8-m.main+fp/hard\libc_nano.a(libc_a-nano-vfprintf.o)
 .text          0x00000000        0x0 c:/siliconlabs/simplicitystudio/v5/developer/toolchains/gnu_arm/12.2.rel1_2023.7/bin/../lib/gcc/arm-none-eabi/12.2.1/thumb/v8-m.main+fp/hard\libc_nano.a(libc_a-nano-vfprintf_i.o)
 .data          0x00000000        0x0 c:/siliconlabs/simplicitystudio/v5/developer/toolchains/gnu_arm/12.2.rel1_2023.7/bin/../lib/gcc/arm-none-eabi/12.2.1/thumb/v8-m.main+fp/hard\libc_nano.a(libc_a-nano-vfprintf_i.o)
 .bss           0x00000000        0x0 c:/siliconlabs/simplicitystudio/v5/developer/toolchains/gnu_arm/12.2.rel1_2023.7/bin/../lib/gcc/arm-none-eabi/12.2.1/thumb/v8-m.main+fp/hard\libc_nano.a(libc_a-nano-vfprintf_i.o)
 .text          0x00000000        0x0 c:/siliconlabs/simplicitystudio/v5/developer/toolchains/gnu_arm/12.2.rel1_2023.7/bin/../lib/gcc/arm-none-eabi/12.2.1/thumb/v8-m.main+fp/hard\libc_nano.a(libc_a-fflush.o)
 .data          0x00000000        0x0 c:/siliconlabs/simplicitystudio/v5/developer/toolchains/gnu_arm/12.2.rel1_2023.7/bin/../lib/gcc/arm-none-eabi/12.2.1/thumb/v8-m.main+fp/hard\libc_nano.a(libc_a-fflush.o)
 .bss           0x00000000        0x0 c:/siliconlabs/simplicitystudio/v5/developer/toolchains/gnu_arm/12.2.rel1_2023.7/bin/../lib/gcc/arm-none-eabi/12.2.1/thumb/v8-m.main+fp/hard\libc_nano.a(libc_a-fflush.o)
 .text.fflush   0x00000000       0x28 c:/siliconlabs/simplicitystudio/v5/developer/toolchains/gnu_arm/12.2.rel1_2023.7/bin/../lib/gcc/arm-none-eabi/12.2.1/thumb/v8-m.main+fp/hard\libc_nano.a(libc_a-fflush.o)
 .text          0x00000000        0x0 c:/siliconlabs/simplicitystudio/v5/developer/toolchains/gnu_arm/12.2.rel1_2023.7/bin/../lib/gcc/arm-none-eabi/12.2.1/thumb/v8-m.main+fp/hard\libc_nano.a(libc_a-fvwrite.o)
 .data          0x00000000        0x0 c:/siliconlabs/simplicitystudio/v5/developer/toolchains/gnu_arm/12.2.rel1_2023.7/bin/../lib/gcc/arm-none-eabi/12.2.1/thumb/v8-m.main+fp/hard\libc_nano.a(libc_a-fvwrite.o)
 .bss           0x00000000        0x0 c:/siliconlabs/simplicitystudio/v5/developer/toolchains/gnu_arm/12.2.rel1_2023.7/bin/../lib/gcc/arm-none-eabi/12.2.1/thumb/v8-m.main+fp/hard\libc_nano.a(libc_a-fvwrite.o)
 .text.__sfvwrite_r
                0x00000000      0x2a0 c:/siliconlabs/simplicitystudio/v5/developer/toolchains/gnu_arm/12.2.rel1_2023.7/bin/../lib/gcc/arm-none-eabi/12.2.1/thumb/v8-m.main+fp/hard\libc_nano.a(libc_a-fvwrite.o)
 .debug_frame   0x00000000       0x3c c:/siliconlabs/simplicitystudio/v5/developer/toolchains/gnu_arm/12.2.rel1_2023.7/bin/../lib/gcc/arm-none-eabi/12.2.1/thumb/v8-m.main+fp/hard\libc_nano.a(libc_a-fvwrite.o)
 .ARM.attributes
                0x00000000       0x38 c:/siliconlabs/simplicitystudio/v5/developer/toolchains/gnu_arm/12.2.rel1_2023.7/bin/../lib/gcc/arm-none-eabi/12.2.1/thumb/v8-m.main+fp/hard\libc_nano.a(libc_a-fvwrite.o)
 .text          0x00000000        0x0 c:/siliconlabs/simplicitystudio/v5/developer/toolchains/gnu_arm/12.2.rel1_2023.7/bin/../lib/gcc/arm-none-eabi/12.2.1/thumb/v8-m.main+fp/hard\libc_nano.a(libc_a-makebuf.o)
 .data          0x00000000        0x0 c:/siliconlabs/simplicitystudio/v5/developer/toolchains/gnu_arm/12.2.rel1_2023.7/bin/../lib/gcc/arm-none-eabi/12.2.1/thumb/v8-m.main+fp/hard\libc_nano.a(libc_a-makebuf.o)
 .bss           0x00000000        0x0 c:/siliconlabs/simplicitystudio/v5/developer/toolchains/gnu_arm/12.2.rel1_2023.7/bin/../lib/gcc/arm-none-eabi/12.2.1/thumb/v8-m.main+fp/hard\libc_nano.a(libc_a-makebuf.o)
 .text          0x00000000        0x0 c:/siliconlabs/simplicitystudio/v5/developer/toolchains/gnu_arm/12.2.rel1_2023.7/bin/../lib/gcc/arm-none-eabi/12.2.1/thumb/v8-m.main+fp/hard\libc_nano.a(libc_a-memmove.o)
 .data          0x00000000        0x0 c:/siliconlabs/simplicitystudio/v5/developer/toolchains/gnu_arm/12.2.rel1_2023.7/bin/../lib/gcc/arm-none-eabi/12.2.1/thumb/v8-m.main+fp/hard\libc_nano.a(libc_a-memmove.o)
 .bss           0x00000000        0x0 c:/siliconlabs/simplicitystudio/v5/developer/toolchains/gnu_arm/12.2.rel1_2023.7/bin/../lib/gcc/arm-none-eabi/12.2.1/thumb/v8-m.main+fp/hard\libc_nano.a(libc_a-memmove.o)
 .text.memmove  0x00000000       0x34 c:/siliconlabs/simplicitystudio/v5/developer/toolchains/gnu_arm/12.2.rel1_2023.7/bin/../lib/gcc/arm-none-eabi/12.2.1/thumb/v8-m.main+fp/hard\libc_nano.a(libc_a-memmove.o)
 .debug_frame   0x00000000       0x28 c:/siliconlabs/simplicitystudio/v5/developer/toolchains/gnu_arm/12.2.rel1_2023.7/bin/../lib/gcc/arm-none-eabi/12.2.1/thumb/v8-m.main+fp/hard\libc_nano.a(libc_a-memmove.o)
 .ARM.attributes
                0x00000000       0x38 c:/siliconlabs/simplicitystudio/v5/developer/toolchains/gnu_arm/12.2.rel1_2023.7/bin/../lib/gcc/arm-none-eabi/12.2.1/thumb/v8-m.main+fp/hard\libc_nano.a(libc_a-memmove.o)
 .text          0x00000000        0x0 c:/siliconlabs/simplicitystudio/v5/developer/toolchains/gnu_arm/12.2.rel1_2023.7/bin/../lib/gcc/arm-none-eabi/12.2.1/thumb/v8-m.main+fp/hard\libc_nano.a(libc_a-fstatr.o)
 .data          0x00000000        0x0 c:/siliconlabs/simplicitystudio/v5/developer/toolchains/gnu_arm/12.2.rel1_2023.7/bin/../lib/gcc/arm-none-eabi/12.2.1/thumb/v8-m.main+fp/hard\libc_nano.a(libc_a-fstatr.o)
 .bss           0x00000000        0x0 c:/siliconlabs/simplicitystudio/v5/developer/toolchains/gnu_arm/12.2.rel1_2023.7/bin/../lib/gcc/arm-none-eabi/12.2.1/thumb/v8-m.main+fp/hard\libc_nano.a(libc_a-fstatr.o)
 .text          0x00000000        0x0 c:/siliconlabs/simplicitystudio/v5/developer/toolchains/gnu_arm/12.2.rel1_2023.7/bin/../lib/gcc/arm-none-eabi/12.2.1/thumb/v8-m.main+fp/hard\libc_nano.a(libc_a-isattyr.o)
 .data          0x00000000        0x0 c:/siliconlabs/simplicitystudio/v5/developer/toolchains/gnu_arm/12.2.rel1_2023.7/bin/../lib/gcc/arm-none-eabi/12.2.1/thumb/v8-m.main+fp/hard\libc_nano.a(libc_a-isattyr.o)
 .bss           0x00000000        0x0 c:/siliconlabs/simplicitystudio/v5/developer/toolchains/gnu_arm/12.2.rel1_2023.7/bin/../lib/gcc/arm-none-eabi/12.2.1/thumb/v8-m.main+fp/hard\libc_nano.a(libc_a-isattyr.o)
 .text          0x00000000        0x0 c:/siliconlabs/simplicitystudio/v5/developer/toolchains/gnu_arm/12.2.rel1_2023.7/bin/../lib/gcc/arm-none-eabi/12.2.1/thumb/v8-m.main+fp/hard\libc_nano.a(libc_a-sbrkr.o)
 .data          0x00000000        0x0 c:/siliconlabs/simplicitystudio/v5/developer/toolchains/gnu_arm/12.2.rel1_2023.7/bin/../lib/gcc/arm-none-eabi/12.2.1/thumb/v8-m.main+fp/hard\libc_nano.a(libc_a-sbrkr.o)
 .bss           0x00000000        0x0 c:/siliconlabs/simplicitystudio/v5/developer/toolchains/gnu_arm/12.2.rel1_2023.7/bin/../lib/gcc/arm-none-eabi/12.2.1/thumb/v8-m.main+fp/hard\libc_nano.a(libc_a-sbrkr.o)
 .text          0x00000000        0x0 c:/siliconlabs/simplicitystudio/v5/developer/toolchains/gnu_arm/12.2.rel1_2023.7/bin/../lib/gcc/arm-none-eabi/12.2.1/thumb/v8-m.main+fp/hard\libc_nano.a(libc_a-memchr-stub.o)
 .data          0x00000000        0x0 c:/siliconlabs/simplicitystudio/v5/developer/toolchains/gnu_arm/12.2.rel1_2023.7/bin/../lib/gcc/arm-none-eabi/12.2.1/thumb/v8-m.main+fp/hard\libc_nano.a(libc_a-memchr-stub.o)
 .bss           0x00000000        0x0 c:/siliconlabs/simplicitystudio/v5/developer/toolchains/gnu_arm/12.2.rel1_2023.7/bin/../lib/gcc/arm-none-eabi/12.2.1/thumb/v8-m.main+fp/hard\libc_nano.a(libc_a-memchr-stub.o)
 .text          0x00000000        0x0 c:/siliconlabs/simplicitystudio/v5/developer/toolchains/gnu_arm/12.2.rel1_2023.7/bin/../lib/gcc/arm-none-eabi/12.2.1/thumb/v8-m.main+fp/hard\libc_nano.a(libc_a-reallocr.o)
 .data          0x00000000        0x0 c:/siliconlabs/simplicitystudio/v5/developer/toolchains/gnu_arm/12.2.rel1_2023.7/bin/../lib/gcc/arm-none-eabi/12.2.1/thumb/v8-m.main+fp/hard\libc_nano.a(libc_a-reallocr.o)
 .bss           0x00000000        0x0 c:/siliconlabs/simplicitystudio/v5/developer/toolchains/gnu_arm/12.2.rel1_2023.7/bin/../lib/gcc/arm-none-eabi/12.2.1/thumb/v8-m.main+fp/hard\libc_nano.a(libc_a-reallocr.o)
 .text._realloc_r
                0x00000000       0x5c c:/siliconlabs/simplicitystudio/v5/developer/toolchains/gnu_arm/12.2.rel1_2023.7/bin/../lib/gcc/arm-none-eabi/12.2.1/thumb/v8-m.main+fp/hard\libc_nano.a(libc_a-reallocr.o)
 .debug_frame   0x00000000       0x3c c:/siliconlabs/simplicitystudio/v5/developer/toolchains/gnu_arm/12.2.rel1_2023.7/bin/../lib/gcc/arm-none-eabi/12.2.1/thumb/v8-m.main+fp/hard\libc_nano.a(libc_a-reallocr.o)
 .ARM.attributes
                0x00000000       0x38 c:/siliconlabs/simplicitystudio/v5/developer/toolchains/gnu_arm/12.2.rel1_2023.7/bin/../lib/gcc/arm-none-eabi/12.2.1/thumb/v8-m.main+fp/hard\libc_nano.a(libc_a-reallocr.o)
 .text          0x00000000        0x0 c:/siliconlabs/simplicitystudio/v5/developer/toolchains/gnu_arm/12.2.rel1_2023.7/bin/../lib/gcc/arm-none-eabi/12.2.1/thumb/v8-m.main+fp/hard\libc_nano.a(libc_a-msizer.o)
 .data          0x00000000        0x0 c:/siliconlabs/simplicitystudio/v5/developer/toolchains/gnu_arm/12.2.rel1_2023.7/bin/../lib/gcc/arm-none-eabi/12.2.1/thumb/v8-m.main+fp/hard\libc_nano.a(libc_a-msizer.o)
 .bss           0x00000000        0x0 c:/siliconlabs/simplicitystudio/v5/developer/toolchains/gnu_arm/12.2.rel1_2023.7/bin/../lib/gcc/arm-none-eabi/12.2.1/thumb/v8-m.main+fp/hard\libc_nano.a(libc_a-msizer.o)
 .text._malloc_usable_size_r
                0x00000000       0x10 c:/siliconlabs/simplicitystudio/v5/developer/toolchains/gnu_arm/12.2.rel1_2023.7/bin/../lib/gcc/arm-none-eabi/12.2.1/thumb/v8-m.main+fp/hard\libc_nano.a(libc_a-msizer.o)
 .debug_frame   0x00000000       0x20 c:/siliconlabs/simplicitystudio/v5/developer/toolchains/gnu_arm/12.2.rel1_2023.7/bin/../lib/gcc/arm-none-eabi/12.2.1/thumb/v8-m.main+fp/hard\libc_nano.a(libc_a-msizer.o)
 .ARM.attributes
                0x00000000       0x38 c:/siliconlabs/simplicitystudio/v5/developer/toolchains/gnu_arm/12.2.rel1_2023.7/bin/../lib/gcc/arm-none-eabi/12.2.1/thumb/v8-m.main+fp/hard\libc_nano.a(libc_a-msizer.o)
 .text          0x00000000        0x0 c:/siliconlabs/simplicitystudio/v5/developer/toolchains/gnu_arm/12.2.rel1_2023.7/bin/../lib/gcc/arm-none-eabi/12.2.1/thumb/v8-m.main+fp/hard/crtend.o
 .data          0x00000000        0x0 c:/siliconlabs/simplicitystudio/v5/developer/toolchains/gnu_arm/12.2.rel1_2023.7/bin/../lib/gcc/arm-none-eabi/12.2.1/thumb/v8-m.main+fp/hard/crtend.o
 .bss           0x00000000        0x0 c:/siliconlabs/simplicitystudio/v5/developer/toolchains/gnu_arm/12.2.rel1_2023.7/bin/../lib/gcc/arm-none-eabi/12.2.1/thumb/v8-m.main+fp/hard/crtend.o
 .rodata.all_implied_fbits
                0x00000000       0x24 c:/siliconlabs/simplicitystudio/v5/developer/toolchains/gnu_arm/12.2.rel1_2023.7/bin/../lib/gcc/arm-none-eabi/12.2.1/thumb/v8-m.main+fp/hard/crtend.o
 .eh_frame      0x00000000        0x4 c:/siliconlabs/simplicitystudio/v5/developer/toolchains/gnu_arm/12.2.rel1_2023.7/bin/../lib/gcc/arm-none-eabi/12.2.1/thumb/v8-m.main+fp/hard/crtend.o
 .text          0x00000000        0x0 c:/siliconlabs/simplicitystudio/v5/developer/toolchains/gnu_arm/12.2.rel1_2023.7/bin/../lib/gcc/arm-none-eabi/12.2.1/thumb/v8-m.main+fp/hard/crtn.o
 .data          0x00000000        0x0 c:/siliconlabs/simplicitystudio/v5/developer/toolchains/gnu_arm/12.2.rel1_2023.7/bin/../lib/gcc/arm-none-eabi/12.2.1/thumb/v8-m.main+fp/hard/crtn.o
 .bss           0x00000000        0x0 c:/siliconlabs/simplicitystudio/v5/developer/toolchains/gnu_arm/12.2.rel1_2023.7/bin/../lib/gcc/arm-none-eabi/12.2.1/thumb/v8-m.main+fp/hard/crtn.o

Memory Configuration

Name             Origin             Length             Attributes
FLASH            0x08000000         0x0017e000         xr
RAM              0x20000000         0x00040000         xrw
*default*        0x00000000         0xffffffff

Linker script and memory map

LOAD c:/siliconlabs/simplicitystudio/v5/developer/toolchains/gnu_arm/12.2.rel1_2023.7/bin/../lib/gcc/arm-none-eabi/12.2.1/thumb/v8-m.main+fp/hard/crti.o
LOAD c:/siliconlabs/simplicitystudio/v5/developer/toolchains/gnu_arm/12.2.rel1_2023.7/bin/../lib/gcc/arm-none-eabi/12.2.1/thumb/v8-m.main+fp/hard/crtbegin.o
LOAD c:/siliconlabs/simplicitystudio/v5/developer/toolchains/gnu_arm/12.2.rel1_2023.7/bin/../lib/gcc/arm-none-eabi/12.2.1/thumb/v8-m.main+fp/hard/crt0.o
START GROUP
LOAD ./app.o
LOAD ./as.o
LOAD ./main.o
LOAD ./mpl.o
LOAD ./si.o
LOAD ./autogen/sl_board_default_init.o
LOAD ./autogen/sl_device_init_clocks.o
LOAD ./autogen/sl_event_handler.o
LOAD ./autogen/sl_i2cspm_init.o
LOAD ./autogen/sl_iostream_handles.o
LOAD ./autogen/sl_iostream_init_eusart_instances.o
LOAD ./autogen/sl_simple_led_instances.o
LOAD ./gecko_sdk_4.4.1/hardware/board/src/sl_board_control_gpio.o
LOAD ./gecko_sdk_4.4.1/hardware/board/src/sl_board_init.o
LOAD ./gecko_sdk_4.4.1/hardware/driver/configuration_over_swo/src/sl_cos.o
LOAD ./gecko_sdk_4.4.1/hardware/driver/mx25_flash_shutdown/src/sl_mx25_flash_shutdown_usart/sl_mx25_flash_shutdown.o
LOAD ./gecko_sdk_4.4.1/platform/Device/SiliconLabs/EFR32MG24/Source/startup_efr32mg24.o
LOAD ./gecko_sdk_4.4.1/platform/Device/SiliconLabs/EFR32MG24/Source/system_efr32mg24.o
LOAD ./gecko_sdk_4.4.1/platform/common/src/sl_assert.o
LOAD ./gecko_sdk_4.4.1/platform/common/src/sl_slist.o
LOAD ./gecko_sdk_4.4.1/platform/common/src/sl_string.o
LOAD ./gecko_sdk_4.4.1/platform/common/src/sl_syscalls.o
LOAD ./gecko_sdk_4.4.1/platform/common/toolchain/src/sl_memory.o
LOAD ./gecko_sdk_4.4.1/platform/driver/debug/src/sl_debug_swo.o
LOAD ./gecko_sdk_4.4.1/platform/driver/i2cspm/src/sl_i2cspm.o
LOAD ./gecko_sdk_4.4.1/platform/driver/leddrv/src/sl_led.o
LOAD ./gecko_sdk_4.4.1/platform/driver/leddrv/src/sl_simple_led.o
LOAD ./gecko_sdk_4.4.1/platform/emdrv/dmadrv/src/dmadrv.o
LOAD ./gecko_sdk_4.4.1/platform/emlib/src/em_burtc.o
LOAD ./gecko_sdk_4.4.1/platform/emlib/src/em_cmu.o
LOAD ./gecko_sdk_4.4.1/platform/emlib/src/em_core.o
LOAD ./gecko_sdk_4.4.1/platform/emlib/src/em_emu.o
LOAD ./gecko_sdk_4.4.1/platform/emlib/src/em_eusart.o
LOAD ./gecko_sdk_4.4.1/platform/emlib/src/em_gpio.o
LOAD ./gecko_sdk_4.4.1/platform/emlib/src/em_i2c.o
LOAD ./gecko_sdk_4.4.1/platform/emlib/src/em_ldma.o
LOAD ./gecko_sdk_4.4.1/platform/emlib/src/em_msc.o
LOAD ./gecko_sdk_4.4.1/platform/emlib/src/em_prs.o
LOAD ./gecko_sdk_4.4.1/platform/emlib/src/em_system.o
LOAD ./gecko_sdk_4.4.1/platform/emlib/src/em_timer.o
LOAD ./gecko_sdk_4.4.1/platform/emlib/src/em_usart.o
LOAD ./gecko_sdk_4.4.1/platform/peripheral/src/peripheral_sysrtc.o
LOAD ./gecko_sdk_4.4.1/platform/service/device_init/src/sl_device_init_dcdc_s2.o
LOAD ./gecko_sdk_4.4.1/platform/service/device_init/src/sl_device_init_emu_s2.o
LOAD ./gecko_sdk_4.4.1/platform/service/device_init/src/sl_device_init_hfxo_s2.o
LOAD ./gecko_sdk_4.4.1/platform/service/device_init/src/sl_device_init_lfxo_s2.o
LOAD ./gecko_sdk_4.4.1/platform/service/device_init/src/sl_device_init_nvic.o
LOAD ./gecko_sdk_4.4.1/platform/service/iostream/src/sl_iostream.o
LOAD ./gecko_sdk_4.4.1/platform/service/iostream/src/sl_iostream_eusart.o
LOAD ./gecko_sdk_4.4.1/platform/service/iostream/src/sl_iostream_retarget_stdio.o
LOAD ./gecko_sdk_4.4.1/platform/service/iostream/src/sl_iostream_stdlib_config.o
LOAD ./gecko_sdk_4.4.1/platform/service/iostream/src/sl_iostream_uart.o
LOAD ./gecko_sdk_4.4.1/platform/service/sleeptimer/src/sl_sleeptimer.o
LOAD ./gecko_sdk_4.4.1/platform/service/sleeptimer/src/sl_sleeptimer_hal_burtc.o
LOAD ./gecko_sdk_4.4.1/platform/service/sleeptimer/src/sl_sleeptimer_hal_sysrtc.o
LOAD ./gecko_sdk_4.4.1/platform/service/sleeptimer/src/sl_sleeptimer_hal_timer.o
LOAD ./gecko_sdk_4.4.1/platform/service/system/src/sl_system_init.o
LOAD ./gecko_sdk_4.4.1/platform/service/system/src/sl_system_process_action.o
LOAD ./gecko_sdk_4.4.1/platform/service/udelay/src/sl_udelay.o
LOAD ./gecko_sdk_4.4.1/platform/service/udelay/src/sl_udelay_armv6m_gcc.o
LOAD c:/siliconlabs/simplicitystudio/v5/developer/toolchains/gnu_arm/12.2.rel1_2023.7/bin/../lib/gcc/arm-none-eabi/12.2.1/thumb/v8-m.main+fp/hard\libgcc.a
LOAD c:/siliconlabs/simplicitystudio/v5/developer/toolchains/gnu_arm/12.2.rel1_2023.7/bin/../lib/gcc/arm-none-eabi/12.2.1/thumb/v8-m.main+fp/hard\libc_nano.a
LOAD c:/siliconlabs/simplicitystudio/v5/developer/toolchains/gnu_arm/12.2.rel1_2023.7/bin/../lib/gcc/arm-none-eabi/12.2.1/thumb/v8-m.main+fp/hard\libm.a
LOAD c:/siliconlabs/simplicitystudio/v5/developer/toolchains/gnu_arm/12.2.rel1_2023.7/bin/../lib/gcc/arm-none-eabi/12.2.1/thumb/v8-m.main+fp/hard\libnosys.a
END GROUP
START GROUP
LOAD c:/siliconlabs/simplicitystudio/v5/developer/toolchains/gnu_arm/12.2.rel1_2023.7/bin/../lib/gcc/arm-none-eabi/12.2.1/thumb/v8-m.main+fp/hard\libgcc.a
LOAD c:/siliconlabs/simplicitystudio/v5/developer/toolchains/gnu_arm/12.2.rel1_2023.7/bin/../lib/gcc/arm-none-eabi/12.2.1/thumb/v8-m.main+fp/hard\libc_nano.a
LOAD c:/siliconlabs/simplicitystudio/v5/developer/toolchains/gnu_arm/12.2.rel1_2023.7/bin/../lib/gcc/arm-none-eabi/12.2.1/thumb/v8-m.main+fp/hard\libnosys.a
END GROUP
START GROUP
LOAD c:/siliconlabs/simplicitystudio/v5/developer/toolchains/gnu_arm/12.2.rel1_2023.7/bin/../lib/gcc/arm-none-eabi/12.2.1/thumb/v8-m.main+fp/hard\libgcc.a
LOAD c:/siliconlabs/simplicitystudio/v5/developer/toolchains/gnu_arm/12.2.rel1_2023.7/bin/../lib/gcc/arm-none-eabi/12.2.1/thumb/v8-m.main+fp/hard\libg_nano.a
LOAD c:/siliconlabs/simplicitystudio/v5/developer/toolchains/gnu_arm/12.2.rel1_2023.7/bin/../lib/gcc/arm-none-eabi/12.2.1/thumb/v8-m.main+fp/hard\libc_nano.a
END GROUP
START GROUP
LOAD c:/siliconlabs/simplicitystudio/v5/developer/toolchains/gnu_arm/12.2.rel1_2023.7/bin/../lib/gcc/arm-none-eabi/12.2.1/thumb/v8-m.main+fp/hard\libgcc.a
LOAD c:/siliconlabs/simplicitystudio/v5/developer/toolchains/gnu_arm/12.2.rel1_2023.7/bin/../lib/gcc/arm-none-eabi/12.2.1/thumb/v8-m.main+fp/hard\libc_nano.a
END GROUP
LOAD c:/siliconlabs/simplicitystudio/v5/developer/toolchains/gnu_arm/12.2.rel1_2023.7/bin/../lib/gcc/arm-none-eabi/12.2.1/thumb/v8-m.main+fp/hard/crtend.o
LOAD c:/siliconlabs/simplicitystudio/v5/developer/toolchains/gnu_arm/12.2.rel1_2023.7/bin/../lib/gcc/arm-none-eabi/12.2.1/thumb/v8-m.main+fp/hard/crtn.o

.text           0x08000000     0x6500
                0x08000000                linker_vectors_begin = .
 *(.vectors)
 .vectors       0x08000000      0x170 ./gecko_sdk_4.4.1/platform/Device/SiliconLabs/EFR32MG24/Source/startup_efr32mg24.o
                0x08000000                __Vectors
                0x08000170                linker_vectors_end = .
                0x08000170                __Vectors_End = .
                0x08000170                __Vectors_Size = (__Vectors_End - __Vectors)
                0x08000170                linker_code_begin = .
 *(SORT_BY_ALIGNMENT(.text*))
 .text          0x08000170        0x8 ./gecko_sdk_4.4.1/platform/service/udelay/src/sl_udelay_armv6m_gcc.o
                0x08000170                sli_delay_loop
 .text.deregister_tm_clones
                0x08000178       0x1c c:/siliconlabs/simplicitystudio/v5/developer/toolchains/gnu_arm/12.2.rel1_2023.7/bin/../lib/gcc/arm-none-eabi/12.2.1/thumb/v8-m.main+fp/hard/crtbegin.o
 .text.register_tm_clones
                0x08000194       0x28 c:/siliconlabs/simplicitystudio/v5/developer/toolchains/gnu_arm/12.2.rel1_2023.7/bin/../lib/gcc/arm-none-eabi/12.2.1/thumb/v8-m.main+fp/hard/crtbegin.o
 .text.__do_global_dtors_aux
                0x080001bc       0x28 c:/siliconlabs/simplicitystudio/v5/developer/toolchains/gnu_arm/12.2.rel1_2023.7/bin/../lib/gcc/arm-none-eabi/12.2.1/thumb/v8-m.main+fp/hard/crtbegin.o
 .text.frame_dummy
                0x080001e4       0x24 c:/siliconlabs/simplicitystudio/v5/developer/toolchains/gnu_arm/12.2.rel1_2023.7/bin/../lib/gcc/arm-none-eabi/12.2.1/thumb/v8-m.main+fp/hard/crtbegin.o
 .text          0x08000208       0x7c c:/siliconlabs/simplicitystudio/v5/developer/toolchains/gnu_arm/12.2.rel1_2023.7/bin/../lib/gcc/arm-none-eabi/12.2.1/thumb/v8-m.main+fp/hard/crt0.o
                0x08000208                _stack_init
                0x08000210                _start
                0x08000210                _mainCRTStartup
 .text.app_init
                0x08000284       0x70 ./app.o
                0x08000284                app_init
 .text.as_init  0x080002f4       0x74 ./as.o
                0x080002f4                as_init
 .text.mpl_init
                0x08000368       0x74 ./mpl.o
                0x08000368                mpl_init
 .text.timer_callback
                0x080003dc        0xc ./si.o
 .text.decode_temp
                0x080003e8       0x54 ./si.o
                0x080003e8                decode_temp
 .text.SI7021_measure.constprop.0
                0x0800043c       0xc8 ./si.o
 .text.initialise_temp_limits
                0x08000504       0x28 ./si.o
                0x08000504                initialise_temp_limits
 .text.i2cspm_app_init
                0x0800052c       0x9c ./si.o
                0x0800052c                i2cspm_app_init
 .text.sl_device_init_clocks
                0x080005c8       0xac ./autogen/sl_device_init_clocks.o
                0x080005c8                sl_device_init_clocks
 .text.sl_i2cspm_init_instances
                0x08000674       0x18 ./autogen/sl_i2cspm_init.o
                0x08000674                sl_i2cspm_init_instances
 .text.sl_iostream_eusart_init_vcom
                0x0800068c       0xc4 ./autogen/sl_iostream_init_eusart_instances.o
                0x0800068c                sl_iostream_eusart_init_vcom
 .text.EUSART0_RX_IRQHandler
                0x08000750        0xc ./autogen/sl_iostream_init_eusart_instances.o
                0x08000750                EUSART0_RX_IRQHandler
 .text.sl_simple_led_init_instances
                0x0800075c       0x1c ./autogen/sl_simple_led_instances.o
                0x0800075c                sl_simple_led_init_instances
 .text.sl_board_enable_sensor
                0x08000778       0x60 ./gecko_sdk_4.4.1/hardware/board/src/sl_board_control_gpio.o
                0x08000778                sl_board_enable_sensor
 .text.cs_high  0x080007d8       0x10 ./gecko_sdk_4.4.1/hardware/driver/mx25_flash_shutdown/src/sl_mx25_flash_shutdown_usart/sl_mx25_flash_shutdown.o
 .text.cs_low   0x080007e8       0x10 ./gecko_sdk_4.4.1/hardware/driver/mx25_flash_shutdown/src/sl_mx25_flash_shutdown_usart/sl_mx25_flash_shutdown.o
 .text.sl_mx25_flash_shutdown
                0x080007f8      0x118 ./gecko_sdk_4.4.1/hardware/driver/mx25_flash_shutdown/src/sl_mx25_flash_shutdown_usart/sl_mx25_flash_shutdown.o
                0x080007f8                sl_mx25_flash_shutdown
 .text.CopyRamFuncs
                0x08000910       0x1c ./gecko_sdk_4.4.1/platform/Device/SiliconLabs/EFR32MG24/Source/startup_efr32mg24.o
                0x08000910                CopyRamFuncs
 .text.Reset_Handler
                0x0800092c       0x64 ./gecko_sdk_4.4.1/platform/Device/SiliconLabs/EFR32MG24/Source/startup_efr32mg24.o
                0x0800092c                Reset_Handler
 .text.SystemInit
                0x08000990       0x68 ./gecko_sdk_4.4.1/platform/Device/SiliconLabs/EFR32MG24/Source/system_efr32mg24.o
                0x08000990                SystemInit
 .text.SystemHFRCODPLLClockGet
                0x080009f8        0xc ./gecko_sdk_4.4.1/platform/Device/SiliconLabs/EFR32MG24/Source/system_efr32mg24.o
                0x080009f8                SystemHFRCODPLLClockGet
 .text.SystemSYSCLKGet
                0x08000a04       0x34 ./gecko_sdk_4.4.1/platform/Device/SiliconLabs/EFR32MG24/Source/system_efr32mg24.o
                0x08000a04                SystemSYSCLKGet
 .text.SystemHCLKGet
                0x08000a38       0x24 ./gecko_sdk_4.4.1/platform/Device/SiliconLabs/EFR32MG24/Source/system_efr32mg24.o
                0x08000a38                SystemHCLKGet
 .text.SystemMaxCoreClockGet
                0x08000a5c        0x8 ./gecko_sdk_4.4.1/platform/Device/SiliconLabs/EFR32MG24/Source/system_efr32mg24.o
                0x08000a5c                SystemMaxCoreClockGet
 .text.SystemHFXOClockGet
                0x08000a64        0xc ./gecko_sdk_4.4.1/platform/Device/SiliconLabs/EFR32MG24/Source/system_efr32mg24.o
                0x08000a64                SystemHFXOClockGet
 .text.SystemHFXOClockSet
                0x08000a70       0x20 ./gecko_sdk_4.4.1/platform/Device/SiliconLabs/EFR32MG24/Source/system_efr32mg24.o
                0x08000a70                SystemHFXOClockSet
 .text.SystemFSRCOClockGet
                0x08000a90        0x8 ./gecko_sdk_4.4.1/platform/Device/SiliconLabs/EFR32MG24/Source/system_efr32mg24.o
                0x08000a90                SystemFSRCOClockGet
 .text.SystemHFRCOEM23ClockGet
                0x08000a98       0x84 ./gecko_sdk_4.4.1/platform/Device/SiliconLabs/EFR32MG24/Source/system_efr32mg24.o
                0x08000a98                SystemHFRCOEM23ClockGet
 .text.SystemLFXOClockGet
                0x08000b1c        0xc ./gecko_sdk_4.4.1/platform/Device/SiliconLabs/EFR32MG24/Source/system_efr32mg24.o
                0x08000b1c                SystemLFXOClockGet
 .text._sbrk    0x08000b28       0x20 ./gecko_sdk_4.4.1/platform/common/toolchain/src/sl_memory.o
                0x08000b28                _sbrk
 .text.sl_debug_swo_init
                0x08000b48      0x114 ./gecko_sdk_4.4.1/platform/driver/debug/src/sl_debug_swo.o
                0x08000b48                sl_debug_swo_init
 .text.sl_debug_swo_write_u8
                0x08000c5c       0x44 ./gecko_sdk_4.4.1/platform/driver/debug/src/sl_debug_swo.o
                0x08000c5c                sl_debug_swo_write_u8
 .text.I2CSPM_Init
                0x08000ca0      0x158 ./gecko_sdk_4.4.1/platform/driver/i2cspm/src/sl_i2cspm.o
                0x08000ca0                I2CSPM_Init
 .text.I2CSPM_Transfer
                0x08000df8       0x20 ./gecko_sdk_4.4.1/platform/driver/i2cspm/src/sl_i2cspm.o
                0x08000df8                I2CSPM_Transfer
 .text.GPIO_PinOutClear
                0x08000e18       0x3c ./gecko_sdk_4.4.1/platform/driver/leddrv/src/sl_simple_led.o
 .text.GPIO_PinOutSet
                0x08000e54       0x3c ./gecko_sdk_4.4.1/platform/driver/leddrv/src/sl_simple_led.o
 .text.sl_simple_led_toggle
                0x08000e90       0x3c ./gecko_sdk_4.4.1/platform/driver/leddrv/src/sl_simple_led.o
                0x08000e90                sl_simple_led_toggle
 .text.sl_simple_led_get_state
                0x08000ecc       0x4c ./gecko_sdk_4.4.1/platform/driver/leddrv/src/sl_simple_led.o
                0x08000ecc                sl_simple_led_get_state
 .text.StartTransfer
                0x08000f18      0x17c ./gecko_sdk_4.4.1/platform/emdrv/dmadrv/src/dmadrv.o
 .text.DMADRV_AllocateChannel
                0x08001094       0x60 ./gecko_sdk_4.4.1/platform/emdrv/dmadrv/src/dmadrv.o
                0x08001094                DMADRV_AllocateChannel
 .text.DMADRV_DeInit
                0x080010f4       0x44 ./gecko_sdk_4.4.1/platform/emdrv/dmadrv/src/dmadrv.o
                0x080010f4                DMADRV_DeInit
 .text.DMADRV_FreeChannel
                0x08001138       0x4c ./gecko_sdk_4.4.1/platform/emdrv/dmadrv/src/dmadrv.o
                0x08001138                DMADRV_FreeChannel
 .text.DMADRV_Init
                0x08001184       0x68 ./gecko_sdk_4.4.1/platform/emdrv/dmadrv/src/dmadrv.o
                0x08001184                DMADRV_Init
 .text.DMADRV_PauseTransfer
                0x080011ec       0x40 ./gecko_sdk_4.4.1/platform/emdrv/dmadrv/src/dmadrv.o
                0x080011ec                DMADRV_PauseTransfer
 .text.DMADRV_ResumeTransfer
                0x0800122c       0x40 ./gecko_sdk_4.4.1/platform/emdrv/dmadrv/src/dmadrv.o
                0x0800122c                DMADRV_ResumeTransfer
 .text.DMADRV_StopTransfer
                0x0800126c       0x40 ./gecko_sdk_4.4.1/platform/emdrv/dmadrv/src/dmadrv.o
                0x0800126c                DMADRV_StopTransfer
 .text.DMADRV_TransferCompletePending
                0x080012ac       0x50 ./gecko_sdk_4.4.1/platform/emdrv/dmadrv/src/dmadrv.o
                0x080012ac                DMADRV_TransferCompletePending
 .text.DMADRV_TransferDone
                0x080012fc       0x44 ./gecko_sdk_4.4.1/platform/emdrv/dmadrv/src/dmadrv.o
                0x080012fc                DMADRV_TransferDone
 .text.LDMA_IRQHandler
                0x08001340       0x74 ./gecko_sdk_4.4.1/platform/emdrv/dmadrv/src/dmadrv.o
                0x08001340                LDMA_IRQHandler
 .text.EMU_VScaleGet
                0x080013b4       0x18 ./gecko_sdk_4.4.1/platform/emlib/src/em_cmu.o
 .text.traceClkGet
                0x080013cc       0x54 ./gecko_sdk_4.4.1/platform/emlib/src/em_cmu.o
 .text.em01GrpaClkGet
                0x08001420       0x74 ./gecko_sdk_4.4.1/platform/emlib/src/em_cmu.o
 .text.em01GrpcClkGet
                0x08001494       0x70 ./gecko_sdk_4.4.1/platform/emlib/src/em_cmu.o
 .text.iadcClkGet
                0x08001504       0x60 ./gecko_sdk_4.4.1/platform/emlib/src/em_cmu.o
 .text.eusart0ClkGet
                0x08001564       0x74 ./gecko_sdk_4.4.1/platform/emlib/src/em_cmu.o
 .text.em23GrpaClkGet
                0x080015d8       0x48 ./gecko_sdk_4.4.1/platform/emlib/src/em_cmu.o
 .text.vdac0ClkGet
                0x08001620       0x70 ./gecko_sdk_4.4.1/platform/emlib/src/em_cmu.o
 .text.vdac1ClkGet
                0x08001690       0x70 ./gecko_sdk_4.4.1/platform/emlib/src/em_cmu.o
 .text.pcnt0ClkGet
                0x08001700       0x4c ./gecko_sdk_4.4.1/platform/emlib/src/em_cmu.o
 .text.wdog0ClkGet
                0x0800174c       0x64 ./gecko_sdk_4.4.1/platform/emlib/src/em_cmu.o
 .text.wdog1ClkGet
                0x080017b0       0x64 ./gecko_sdk_4.4.1/platform/emlib/src/em_cmu.o
 .text.sysrtcClkGet
                0x08001814       0x48 ./gecko_sdk_4.4.1/platform/emlib/src/em_cmu.o
 .text.em4GrpaClkGet
                0x0800185c       0x48 ./gecko_sdk_4.4.1/platform/emlib/src/em_cmu.o
 .text.CMU_ClockDivGet
                0x080018a4       0x78 ./gecko_sdk_4.4.1/platform/emlib/src/em_cmu.o
                0x080018a4                CMU_ClockDivGet
 .text.flashWaitStateControl
                0x0800191c       0x58 ./gecko_sdk_4.4.1/platform/emlib/src/em_cmu.o
 .text.CMU_ClockEnable
                0x08001974       0x50 ./gecko_sdk_4.4.1/platform/emlib/src/em_cmu.o
                0x08001974                CMU_ClockEnable
 .text.CMU_ClockFreqGet
                0x080019c4      0x204 ./gecko_sdk_4.4.1/platform/emlib/src/em_cmu.o
                0x080019c4                CMU_ClockFreqGet
 .text.rhclkPrescOptimize
                0x08001bc8       0x20 ./gecko_sdk_4.4.1/platform/emlib/src/em_cmu.o
 .text.CMU_ClockSelectGet
                0x08001be8      0x22c ./gecko_sdk_4.4.1/platform/emlib/src/em_cmu.o
                0x08001be8                CMU_ClockSelectGet
 .text.sli_em_cmu_HFXOSetForceEnable
                0x08001e14       0x1c ./gecko_sdk_4.4.1/platform/emlib/src/em_cmu.o
                0x08001e14                sli_em_cmu_HFXOSetForceEnable
 .text.CMU_HFXOInit
                0x08001e30      0x224 ./gecko_sdk_4.4.1/platform/emlib/src/em_cmu.o
                0x08001e30                CMU_HFXOInit
 .text.CMU_HFXOCTuneDeltaGet
                0x08002054        0xc ./gecko_sdk_4.4.1/platform/emlib/src/em_cmu.o
                0x08002054                CMU_HFXOCTuneDeltaGet
 .text.CMU_LFXOInit
                0x08002060       0xc4 ./gecko_sdk_4.4.1/platform/emlib/src/em_cmu.o
                0x08002060                CMU_LFXOInit
 .text.CMU_LFXOPrecisionSet
                0x08002124        0xc ./gecko_sdk_4.4.1/platform/emlib/src/em_cmu.o
                0x08002124                CMU_LFXOPrecisionSet
 .text.CMU_HFXOPrecisionSet
                0x08002130        0xc ./gecko_sdk_4.4.1/platform/emlib/src/em_cmu.o
                0x08002130                CMU_HFXOPrecisionSet
 .text.CMU_ClockDivSet
                0x0800213c      0x12c ./gecko_sdk_4.4.1/platform/emlib/src/em_cmu.o
                0x0800213c                CMU_ClockDivSet
 .text.sli_em_cmu_SYSCLKInitPreClockSelect
                0x08002268       0x20 ./gecko_sdk_4.4.1/platform/emlib/src/em_cmu.o
                0x08002268                sli_em_cmu_SYSCLKInitPreClockSelect
 .text.pclkDivOptimize
                0x08002288       0x24 ./gecko_sdk_4.4.1/platform/emlib/src/em_cmu.o
 .text.EMU_DCDCSync
                0x080022ac       0x10 ./gecko_sdk_4.4.1/platform/emlib/src/em_emu.o
 .text.EMU_EM4Init
                0x080022bc       0x14 ./gecko_sdk_4.4.1/platform/emlib/src/em_emu.o
                0x080022bc                EMU_EM4Init
 .text.EMU_VScaleEM01
                0x080022d0       0xa8 ./gecko_sdk_4.4.1/platform/emlib/src/em_emu.o
                0x080022d0                EMU_VScaleEM01
 .text.EMU_VScaleEM01ByClock
                0x08002378       0x30 ./gecko_sdk_4.4.1/platform/emlib/src/em_emu.o
                0x08002378                EMU_VScaleEM01ByClock
 .text.EMU_DCDCModeSet
                0x080023a8       0xac ./gecko_sdk_4.4.1/platform/emlib/src/em_emu.o
                0x080023a8                EMU_DCDCModeSet
 .text.EMU_DCDCInit
                0x08002454       0x70 ./gecko_sdk_4.4.1/platform/emlib/src/em_emu.o
                0x08002454                EMU_DCDCInit
 .text.EMU_DCDCSetPFMXModePeakCurrent
                0x080024c4       0x6c ./gecko_sdk_4.4.1/platform/emlib/src/em_emu.o
                0x080024c4                EMU_DCDCSetPFMXModePeakCurrent
 .text.EUSART_Reset
                0x08002530       0x54 ./gecko_sdk_4.4.1/platform/emlib/src/em_eusart.o
                0x08002530                EUSART_Reset
 .text.EUSART_Enable
                0x08002584       0x6c ./gecko_sdk_4.4.1/platform/emlib/src/em_eusart.o
                0x08002584                EUSART_Enable
 .text.EUSART_BaudrateSet
                0x080025f0      0x1cc ./gecko_sdk_4.4.1/platform/emlib/src/em_eusart.o
                0x080025f0                EUSART_BaudrateSet
 .text.EUSART_AsyncInitCommon
                0x080027bc      0x23c ./gecko_sdk_4.4.1/platform/emlib/src/em_eusart.o
 .text.EUSART_UartInitHf
                0x080029f8       0x5c ./gecko_sdk_4.4.1/platform/emlib/src/em_eusart.o
                0x080029f8                EUSART_UartInitHf
 .text.EUSART_UartInitLf
                0x08002a54       0xb8 ./gecko_sdk_4.4.1/platform/emlib/src/em_eusart.o
                0x08002a54                EUSART_UartInitLf
 .text.GPIO_PinOutSet
                0x08002b0c       0x3c ./gecko_sdk_4.4.1/platform/emlib/src/em_gpio.o
 .text.GPIO_PinOutClear
                0x08002b48       0x3c ./gecko_sdk_4.4.1/platform/emlib/src/em_gpio.o
 .text.GPIO_PinModeSet
                0x08002b84       0x94 ./gecko_sdk_4.4.1/platform/emlib/src/em_gpio.o
                0x08002b84                GPIO_PinModeSet
 .text.I2C_BusFreqSet
                0x08002c18      0x108 ./gecko_sdk_4.4.1/platform/emlib/src/em_i2c.o
                0x08002c18                I2C_BusFreqSet
 .text.I2C_Enable
                0x08002d20       0x38 ./gecko_sdk_4.4.1/platform/emlib/src/em_i2c.o
                0x08002d20                I2C_Enable
 .text.I2C_Init
                0x08002d58       0x64 ./gecko_sdk_4.4.1/platform/emlib/src/em_i2c.o
                0x08002d58                I2C_Init
 .text.I2C_Transfer
                0x08002dbc      0x224 ./gecko_sdk_4.4.1/platform/emlib/src/em_i2c.o
                0x08002dbc                I2C_Transfer
 .text.I2C_TransferInit
                0x08002fe0       0xbc ./gecko_sdk_4.4.1/platform/emlib/src/em_i2c.o
                0x08002fe0                I2C_TransferInit
 .text.LDMA_DeInit
                0x0800309c       0x3c ./gecko_sdk_4.4.1/platform/emlib/src/em_ldma.o
                0x0800309c                LDMA_DeInit
 .text.LDMA_EnableChannelRequest
                0x080030d8       0x40 ./gecko_sdk_4.4.1/platform/emlib/src/em_ldma.o
                0x080030d8                LDMA_EnableChannelRequest
 .text.LDMA_Init
                0x08003118       0x94 ./gecko_sdk_4.4.1/platform/emlib/src/em_ldma.o
                0x08003118                LDMA_Init
 .text.LDMA_StartTransfer
                0x080031ac      0x104 ./gecko_sdk_4.4.1/platform/emlib/src/em_ldma.o
                0x080031ac                LDMA_StartTransfer
 .text.LDMA_StopTransfer
                0x080032b0       0x38 ./gecko_sdk_4.4.1/platform/emlib/src/em_ldma.o
                0x080032b0                LDMA_StopTransfer
 .text.LDMA_TransferDone
                0x080032e8       0x44 ./gecko_sdk_4.4.1/platform/emlib/src/em_ldma.o
                0x080032e8                LDMA_TransferDone
 .text.USART_BaudrateSyncSet
                0x0800332c       0x48 ./gecko_sdk_4.4.1/platform/emlib/src/em_usart.o
                0x0800332c                USART_BaudrateSyncSet
 .text.USART_Reset
                0x08003374       0x58 ./gecko_sdk_4.4.1/platform/emlib/src/em_usart.o
                0x08003374                USART_Reset
 .text.USART_InitSync
                0x080033cc       0xb0 ./gecko_sdk_4.4.1/platform/emlib/src/em_usart.o
                0x080033cc                USART_InitSync
 .text.sl_hal_sysrtc_wait_sync
                0x0800347c       0x14 ./gecko_sdk_4.4.1/platform/peripheral/src/peripheral_sysrtc.o
                0x0800347c                sl_hal_sysrtc_wait_sync
 .text.sl_hal_sysrtc_wait_ready
                0x08003490       0x1c ./gecko_sdk_4.4.1/platform/peripheral/src/peripheral_sysrtc.o
                0x08003490                sl_hal_sysrtc_wait_ready
 .text.sl_hal_sysrtc_stop
                0x080034ac       0x14 ./gecko_sdk_4.4.1/platform/peripheral/src/peripheral_sysrtc.o
                0x080034ac                sl_hal_sysrtc_stop
 .text.sl_hal_sysrtc_enable
                0x080034c0       0x18 ./gecko_sdk_4.4.1/platform/peripheral/src/peripheral_sysrtc.o
                0x080034c0                sl_hal_sysrtc_enable
 .text.sl_hal_sysrtc_disable
                0x080034d8       0x1c ./gecko_sdk_4.4.1/platform/peripheral/src/peripheral_sysrtc.o
                0x080034d8                sl_hal_sysrtc_disable
 .text.sl_hal_sysrtc_init
                0x080034f4       0x20 ./gecko_sdk_4.4.1/platform/peripheral/src/peripheral_sysrtc.o
                0x080034f4                sl_hal_sysrtc_init
 .text.sl_hal_sysrtc_init_group
                0x08003514       0x48 ./gecko_sdk_4.4.1/platform/peripheral/src/peripheral_sysrtc.o
                0x08003514                sl_hal_sysrtc_init_group
 .text.sl_hal_sysrtc_enable_group_interrupts
                0x0800355c       0x1c ./gecko_sdk_4.4.1/platform/peripheral/src/peripheral_sysrtc.o
                0x0800355c                sl_hal_sysrtc_enable_group_interrupts
 .text.sl_hal_sysrtc_disable_group_interrupts
                0x08003578       0x1c ./gecko_sdk_4.4.1/platform/peripheral/src/peripheral_sysrtc.o
                0x08003578                sl_hal_sysrtc_disable_group_interrupts
 .text.sl_hal_sysrtc_clear_group_interrupts
                0x08003594       0x1c ./gecko_sdk_4.4.1/platform/peripheral/src/peripheral_sysrtc.o
                0x08003594                sl_hal_sysrtc_clear_group_interrupts
 .text.sl_hal_sysrtc_get_group_interrupts
                0x080035b0       0x20 ./gecko_sdk_4.4.1/platform/peripheral/src/peripheral_sysrtc.o
                0x080035b0                sl_hal_sysrtc_get_group_interrupts
 .text.sl_hal_sysrtc_get_group_compare_channel_value
                0x080035d0       0x30 ./gecko_sdk_4.4.1/platform/peripheral/src/peripheral_sysrtc.o
                0x080035d0                sl_hal_sysrtc_get_group_compare_channel_value
 .text.sl_hal_sysrtc_set_group_compare_channel_value
                0x08003600       0x28 ./gecko_sdk_4.4.1/platform/peripheral/src/peripheral_sysrtc.o
                0x08003600                sl_hal_sysrtc_set_group_compare_channel_value
 .text.sl_device_init_dcdc
                0x08003628       0x2c ./gecko_sdk_4.4.1/platform/service/device_init/src/sl_device_init_dcdc_s2.o
                0x08003628                sl_device_init_dcdc
 .text.sl_device_init_emu
                0x08003654       0x24 ./gecko_sdk_4.4.1/platform/service/device_init/src/sl_device_init_emu_s2.o
                0x08003654                sl_device_init_emu
 .text.sl_device_init_hfxo
                0x08003678       0x70 ./gecko_sdk_4.4.1/platform/service/device_init/src/sl_device_init_hfxo_s2.o
                0x08003678                sl_device_init_hfxo
 .text.sl_device_init_lfxo
                0x080036e8       0x2c ./gecko_sdk_4.4.1/platform/service/device_init/src/sl_device_init_lfxo_s2.o
                0x080036e8                sl_device_init_lfxo
 .text.sl_device_init_nvic
                0x08003714       0x3c ./gecko_sdk_4.4.1/platform/service/device_init/src/sl_device_init_nvic.o
                0x08003714                sl_device_init_nvic
 .text.sl_iostream_set_default
                0x08003750       0x18 ./gecko_sdk_4.4.1/platform/service/iostream/src/sl_iostream.o
                0x08003750                sl_iostream_set_default
 .text.sl_iostream_get_default
                0x08003768       0x18 ./gecko_sdk_4.4.1/platform/service/iostream/src/sl_iostream.o
                0x08003768                sl_iostream_get_default
 .text.sl_iostream_eusart_init
                0x08003780      0x228 ./gecko_sdk_4.4.1/platform/service/iostream/src/sl_iostream_eusart.o
                0x08003780                sl_iostream_eusart_init
 .text._write   0x080039a8       0x20 ./gecko_sdk_4.4.1/platform/service/iostream/src/sl_iostream_retarget_stdio.o
                0x080039a8                _write
 .text.sl_iostream_stdlib_disable_buffering
                0x080039c8       0x14 ./gecko_sdk_4.4.1/platform/service/iostream/src/sl_iostream_stdlib_config.o
                0x080039c8                sl_iostream_stdlib_disable_buffering
 .text.get_write_ptr
                0x080039dc       0x40 ./gecko_sdk_4.4.1/platform/service/iostream/src/sl_iostream_uart.o
 .text.dma_irq_handler
                0x08003a1c       0x74 ./gecko_sdk_4.4.1/platform/service/iostream/src/sl_iostream_uart.o
 .text.uart_read
                0x08003a90      0x1f4 ./gecko_sdk_4.4.1/platform/service/iostream/src/sl_iostream_uart.o
 .text.uart_deinit
                0x08003c84       0x98 ./gecko_sdk_4.4.1/platform/service/iostream/src/sl_iostream_uart.o
 .text.uart_write
                0x08003d1c       0xc0 ./gecko_sdk_4.4.1/platform/service/iostream/src/sl_iostream_uart.o
 .text.sli_iostream_uart_context_init
                0x08003ddc       0xf8 ./gecko_sdk_4.4.1/platform/service/iostream/src/sl_iostream_uart.o
                0x08003ddc                sli_iostream_uart_context_init
 .text.delta_list_insert_timer
                0x08003ed4       0x40 ./gecko_sdk_4.4.1/platform/service/sleeptimer/src/sl_sleeptimer.o
 .text.update_delta_list
                0x08003f14       0x34 ./gecko_sdk_4.4.1/platform/service/sleeptimer/src/sl_sleeptimer.o
 .text.set_comparator_for_next_timer
                0x08003f48       0x5c ./gecko_sdk_4.4.1/platform/service/sleeptimer/src/sl_sleeptimer.o
 .text.create_timer
                0x08003fa4       0x88 ./gecko_sdk_4.4.1/platform/service/sleeptimer/src/sl_sleeptimer.o
 .text.delta_list_remove_timer
                0x0800402c       0x38 ./gecko_sdk_4.4.1/platform/service/sleeptimer/src/sl_sleeptimer.o
 .text.sl_sleeptimer_init
                0x08004064       0x74 ./gecko_sdk_4.4.1/platform/service/sleeptimer/src/sl_sleeptimer.o
                0x08004064                sl_sleeptimer_init
 .text.sl_sleeptimer_is_timer_running
                0x080040d8       0x3c ./gecko_sdk_4.4.1/platform/service/sleeptimer/src/sl_sleeptimer.o
                0x080040d8                sl_sleeptimer_is_timer_running
 .text.sl_sleeptimer_ms_to_tick
                0x08004114       0x24 ./gecko_sdk_4.4.1/platform/service/sleeptimer/src/sl_sleeptimer.o
                0x08004114                sl_sleeptimer_ms_to_tick
 .text.sl_sleeptimer_delay_millisecond
                0x08004138       0x38 ./gecko_sdk_4.4.1/platform/service/sleeptimer/src/sl_sleeptimer.o
                0x08004138                sl_sleeptimer_delay_millisecond
 .text.process_timer_irq
                0x08004170      0x150 ./gecko_sdk_4.4.1/platform/service/sleeptimer/src/sl_sleeptimer.o
                0x08004170                process_timer_irq
 .text.sleeptimer_hal_init_timer
                0x080042c0       0x64 ./gecko_sdk_4.4.1/platform/service/sleeptimer/src/sl_sleeptimer_hal_sysrtc.o
                0x080042c0                sleeptimer_hal_init_timer
 .text.sleeptimer_hal_get_counter
                0x08004324       0x10 ./gecko_sdk_4.4.1/platform/service/sleeptimer/src/sl_sleeptimer_hal_sysrtc.o
                0x08004324                sleeptimer_hal_get_counter
 .text.sleeptimer_hal_set_compare
                0x08004334       0x70 ./gecko_sdk_4.4.1/platform/service/sleeptimer/src/sl_sleeptimer_hal_sysrtc.o
                0x08004334                sleeptimer_hal_set_compare
 .text.sleeptimer_hal_disable_int
                0x080043a4       0x2c ./gecko_sdk_4.4.1/platform/service/sleeptimer/src/sl_sleeptimer_hal_sysrtc.o
                0x080043a4                sleeptimer_hal_disable_int
 .text.sleeptimer_hal_set_int
                0x080043d0       0x10 ./gecko_sdk_4.4.1/platform/service/sleeptimer/src/sl_sleeptimer_hal_sysrtc.o
                0x080043d0                sleeptimer_hal_set_int
 .text.sl_udelay_wait
                0x080043e0       0x58 ./gecko_sdk_4.4.1/platform/service/udelay/src/sl_udelay.o
                0x080043e0                sl_udelay_wait
 .text          0x08004438       0x30 c:/siliconlabs/simplicitystudio/v5/developer/toolchains/gnu_arm/12.2.rel1_2023.7/bin/../lib/gcc/arm-none-eabi/12.2.1/thumb/v8-m.main+fp/hard\libgcc.a(_aeabi_uldivmod.o)
                0x08004438                __aeabi_uldivmod
 .text.__udivmoddi4
                0x08004468      0x2ec c:/siliconlabs/simplicitystudio/v5/developer/toolchains/gnu_arm/12.2.rel1_2023.7/bin/../lib/gcc/arm-none-eabi/12.2.1/thumb/v8-m.main+fp/hard\libgcc.a(_udivmoddi4.o)
                0x08004468                __udivmoddi4
 .text          0x08004754        0x4 c:/siliconlabs/simplicitystudio/v5/developer/toolchains/gnu_arm/12.2.rel1_2023.7/bin/../lib/gcc/arm-none-eabi/12.2.1/thumb/v8-m.main+fp/hard\libgcc.a(_dvmd_tls.o)
                0x08004754                __aeabi_idiv0
                0x08004754                __aeabi_ldiv0
 .text.exit     0x08004758       0x24 c:/siliconlabs/simplicitystudio/v5/developer/toolchains/gnu_arm/12.2.rel1_2023.7/bin/../lib/gcc/arm-none-eabi/12.2.1/thumb/v8-m.main+fp/hard\libc_nano.a(libc_a-exit.o)
                0x08004758                exit
 .text.std      0x0800477c       0x6c c:/siliconlabs/simplicitystudio/v5/developer/toolchains/gnu_arm/12.2.rel1_2023.7/bin/../lib/gcc/arm-none-eabi/12.2.1/thumb/v8-m.main+fp/hard\libc_nano.a(libc_a-findfp.o)
 .text.stdio_exit_handler
                0x080047e8       0x18 c:/siliconlabs/simplicitystudio/v5/developer/toolchains/gnu_arm/12.2.rel1_2023.7/bin/../lib/gcc/arm-none-eabi/12.2.1/thumb/v8-m.main+fp/hard\libc_nano.a(libc_a-findfp.o)
 .text.cleanup_stdio
                0x08004800       0x40 c:/siliconlabs/simplicitystudio/v5/developer/toolchains/gnu_arm/12.2.rel1_2023.7/bin/../lib/gcc/arm-none-eabi/12.2.1/thumb/v8-m.main+fp/hard\libc_nano.a(libc_a-findfp.o)
 .text.global_stdio_init.part.0
                0x08004840       0x3c c:/siliconlabs/simplicitystudio/v5/developer/toolchains/gnu_arm/12.2.rel1_2023.7/bin/../lib/gcc/arm-none-eabi/12.2.1/thumb/v8-m.main+fp/hard\libc_nano.a(libc_a-findfp.o)
 .text.__sfp_lock_acquire
                0x0800487c        0xc c:/siliconlabs/simplicitystudio/v5/developer/toolchains/gnu_arm/12.2.rel1_2023.7/bin/../lib/gcc/arm-none-eabi/12.2.1/thumb/v8-m.main+fp/hard\libc_nano.a(libc_a-findfp.o)
                0x0800487c                __sfp_lock_acquire
 .text.__sfp_lock_release
                0x08004888        0xc c:/siliconlabs/simplicitystudio/v5/developer/toolchains/gnu_arm/12.2.rel1_2023.7/bin/../lib/gcc/arm-none-eabi/12.2.1/thumb/v8-m.main+fp/hard\libc_nano.a(libc_a-findfp.o)
                0x08004888                __sfp_lock_release
 .text.__sinit  0x08004894       0x30 c:/siliconlabs/simplicitystudio/v5/developer/toolchains/gnu_arm/12.2.rel1_2023.7/bin/../lib/gcc/arm-none-eabi/12.2.1/thumb/v8-m.main+fp/hard\libc_nano.a(libc_a-findfp.o)
                0x08004894                __sinit
 .text.printf   0x080048c4       0x24 c:/siliconlabs/simplicitystudio/v5/developer/toolchains/gnu_arm/12.2.rel1_2023.7/bin/../lib/gcc/arm-none-eabi/12.2.1/thumb/v8-m.main+fp/hard\libc_nano.a(libc_a-printf.o)
                0x080048c4                iprintf
                0x080048c4                printf
 .text.puts     0x080048e8       0x10 c:/siliconlabs/simplicitystudio/v5/developer/toolchains/gnu_arm/12.2.rel1_2023.7/bin/../lib/gcc/arm-none-eabi/12.2.1/thumb/v8-m.main+fp/hard\libc_nano.a(libc_a-puts.o)
                0x080048e8                puts
 .text.setvbuf  0x080048f8      0x168 c:/siliconlabs/simplicitystudio/v5/developer/toolchains/gnu_arm/12.2.rel1_2023.7/bin/../lib/gcc/arm-none-eabi/12.2.1/thumb/v8-m.main+fp/hard\libc_nano.a(libc_a-setvbuf.o)
                0x080048f8                setvbuf
 .text.__swsetup_r
                0x08004a60       0xac c:/siliconlabs/simplicitystudio/v5/developer/toolchains/gnu_arm/12.2.rel1_2023.7/bin/../lib/gcc/arm-none-eabi/12.2.1/thumb/v8-m.main+fp/hard\libc_nano.a(libc_a-wsetup.o)
                0x08004a60                __swsetup_r
 .text._close_r
                0x08004b0c       0x20 c:/siliconlabs/simplicitystudio/v5/developer/toolchains/gnu_arm/12.2.rel1_2023.7/bin/../lib/gcc/arm-none-eabi/12.2.1/thumb/v8-m.main+fp/hard\libc_nano.a(libc_a-closer.o)
                0x08004b0c                _close_r
 .text._lseek_r
                0x08004b2c       0x24 c:/siliconlabs/simplicitystudio/v5/developer/toolchains/gnu_arm/12.2.rel1_2023.7/bin/../lib/gcc/arm-none-eabi/12.2.1/thumb/v8-m.main+fp/hard\libc_nano.a(libc_a-lseekr.o)
                0x08004b2c                _lseek_r
 .text._read_r  0x08004b50       0x24 c:/siliconlabs/simplicitystudio/v5/developer/toolchains/gnu_arm/12.2.rel1_2023.7/bin/../lib/gcc/arm-none-eabi/12.2.1/thumb/v8-m.main+fp/hard\libc_nano.a(libc_a-readr.o)
                0x08004b50                _read_r
 .text._write_r
                0x08004b74       0x24 c:/siliconlabs/simplicitystudio/v5/developer/toolchains/gnu_arm/12.2.rel1_2023.7/bin/../lib/gcc/arm-none-eabi/12.2.1/thumb/v8-m.main+fp/hard\libc_nano.a(libc_a-writer.o)
                0x08004b74                _write_r
 .text.__libc_init_array
                0x08004b98       0x48 c:/siliconlabs/simplicitystudio/v5/developer/toolchains/gnu_arm/12.2.rel1_2023.7/bin/../lib/gcc/arm-none-eabi/12.2.1/thumb/v8-m.main+fp/hard\libc_nano.a(libc_a-init.o)
                0x08004b98                __libc_init_array
 .text._free_r  0x08004be0       0x94 c:/siliconlabs/simplicitystudio/v5/developer/toolchains/gnu_arm/12.2.rel1_2023.7/bin/../lib/gcc/arm-none-eabi/12.2.1/thumb/v8-m.main+fp/hard\libc_nano.a(libc_a-freer.o)
                0x08004be0                _free_r
 .text.malloc   0x08004c74       0x10 c:/siliconlabs/simplicitystudio/v5/developer/toolchains/gnu_arm/12.2.rel1_2023.7/bin/../lib/gcc/arm-none-eabi/12.2.1/thumb/v8-m.main+fp/hard\libc_nano.a(libc_a-malloc.o)
                0x08004c74                malloc
 .text.sbrk_aligned
                0x08004c84       0x44 c:/siliconlabs/simplicitystudio/v5/developer/toolchains/gnu_arm/12.2.rel1_2023.7/bin/../lib/gcc/arm-none-eabi/12.2.1/thumb/v8-m.main+fp/hard\libc_nano.a(libc_a-mallocr.o)
 .text._malloc_r
                0x08004cc8       0xf0 c:/siliconlabs/simplicitystudio/v5/developer/toolchains/gnu_arm/12.2.rel1_2023.7/bin/../lib/gcc/arm-none-eabi/12.2.1/thumb/v8-m.main+fp/hard\libc_nano.a(libc_a-mallocr.o)
                0x08004cc8                _malloc_r
 .text.__malloc_lock
                0x08004db8        0xc c:/siliconlabs/simplicitystudio/v5/developer/toolchains/gnu_arm/12.2.rel1_2023.7/bin/../lib/gcc/arm-none-eabi/12.2.1/thumb/v8-m.main+fp/hard\libc_nano.a(libc_a-mlock.o)
                0x08004db8                __malloc_lock
 .text.__malloc_unlock
                0x08004dc4        0xc c:/siliconlabs/simplicitystudio/v5/developer/toolchains/gnu_arm/12.2.rel1_2023.7/bin/../lib/gcc/arm-none-eabi/12.2.1/thumb/v8-m.main+fp/hard\libc_nano.a(libc_a-mlock.o)
                0x08004dc4                __malloc_unlock
 .text._vfprintf_r
                0x08004dd0      0x230 c:/siliconlabs/simplicitystudio/v5/developer/toolchains/gnu_arm/12.2.rel1_2023.7/bin/../lib/gcc/arm-none-eabi/12.2.1/thumb/v8-m.main+fp/hard\libc_nano.a(libc_a-nano-vfprintf.o)
                0x08004dd0                _vfprintf_r
                0x08004dd0                _vfiprintf_r
 .text._printf_i
                0x08005000      0x258 c:/siliconlabs/simplicitystudio/v5/developer/toolchains/gnu_arm/12.2.rel1_2023.7/bin/../lib/gcc/arm-none-eabi/12.2.1/thumb/v8-m.main+fp/hard\libc_nano.a(libc_a-nano-vfprintf_i.o)
                0x08005000                _printf_i
 .text._fstat_r
                0x08005258       0x24 c:/siliconlabs/simplicitystudio/v5/developer/toolchains/gnu_arm/12.2.rel1_2023.7/bin/../lib/gcc/arm-none-eabi/12.2.1/thumb/v8-m.main+fp/hard\libc_nano.a(libc_a-fstatr.o)
                0x08005258                _fstat_r
 .text._isatty_r
                0x0800527c       0x20 c:/siliconlabs/simplicitystudio/v5/developer/toolchains/gnu_arm/12.2.rel1_2023.7/bin/../lib/gcc/arm-none-eabi/12.2.1/thumb/v8-m.main+fp/hard\libc_nano.a(libc_a-isattyr.o)
                0x0800527c                _isatty_r
 .text._sbrk_r  0x0800529c       0x20 c:/siliconlabs/simplicitystudio/v5/developer/toolchains/gnu_arm/12.2.rel1_2023.7/bin/../lib/gcc/arm-none-eabi/12.2.1/thumb/v8-m.main+fp/hard\libc_nano.a(libc_a-sbrkr.o)
                0x0800529c                _sbrk_r
 .text.app_process_action
                0x080052bc        0x2 ./app.o
                0x080052bc                app_process_action
 .text.startup.main
                0x080052be       0x14 ./main.o
                0x080052be                main
 .text.decode_rh
                0x080052d2       0x16 ./si.o
                0x080052d2                decode_rh
 .text.sl_board_default_init
                0x080052e8        0x4 ./autogen/sl_board_default_init.o
                0x080052e8                sl_board_default_init
 .text.sl_platform_init
                0x080052ec       0x26 ./autogen/sl_event_handler.o
                0x080052ec                sl_platform_init
 .text.sl_driver_init
                0x08005312       0x16 ./autogen/sl_event_handler.o
                0x08005312                sl_driver_init
 .text.sl_service_init
                0x08005328       0x16 ./autogen/sl_event_handler.o
                0x08005328                sl_service_init
 .text.sl_stack_init
                0x0800533e        0x2 ./autogen/sl_event_handler.o
                0x0800533e                sl_stack_init
 .text.sl_internal_app_init
                0x08005340        0x2 ./autogen/sl_event_handler.o
                0x08005340                sl_internal_app_init
 .text.sl_platform_process_action
                0x08005342        0x2 ./autogen/sl_event_handler.o
                0x08005342                sl_platform_process_action
 .text.sl_service_process_action
                0x08005344        0x2 ./autogen/sl_event_handler.o
                0x08005344                sl_service_process_action
 .text.sl_stack_process_action
                0x08005346        0x2 ./autogen/sl_event_handler.o
                0x08005346                sl_stack_process_action
 .text.sl_internal_app_process_action
                0x08005348        0x2 ./autogen/sl_event_handler.o
                0x08005348                sl_internal_app_process_action
 .text.sl_iostream_eusart_init_instances
                0x0800534a        0x4 ./autogen/sl_iostream_init_eusart_instances.o
                0x0800534a                sl_iostream_eusart_init_instances
 .text.EUSART0_TX_IRQHandler
                0x0800534e        0x4 ./autogen/sl_iostream_init_eusart_instances.o
                0x0800534e                EUSART0_TX_IRQHandler
 .text.sl_board_enable_vcom
                0x08005352       0x12 ./gecko_sdk_4.4.1/hardware/board/src/sl_board_control_gpio.o
                0x08005352                sl_board_enable_vcom
 .text.sl_board_configure_vcom
                0x08005364        0x4 ./gecko_sdk_4.4.1/hardware/board/src/sl_board_control_gpio.o
                0x08005364                sl_board_configure_vcom
 .text.sl_board_disable_vcom
                0x08005368       0x12 ./gecko_sdk_4.4.1/hardware/board/src/sl_board_control_gpio.o
                0x08005368                sl_board_disable_vcom
 .text.sl_board_init
                0x0800537a       0x1c ./gecko_sdk_4.4.1/hardware/board/src/sl_board_init.o
                0x0800537a                sl_board_init
 .text.sl_board_preinit
                0x08005396        0x8 ./gecko_sdk_4.4.1/hardware/board/src/sl_board_init.o
                0x08005396                sl_board_preinit
 .text.sli_cos_swo_itm_8_write.constprop.0.isra.0
                0x0800539e       0x78 ./gecko_sdk_4.4.1/hardware/driver/configuration_over_swo/src/sl_cos.o
 .text.sl_cos_send_config
                0x08005416       0x12 ./gecko_sdk_4.4.1/hardware/driver/configuration_over_swo/src/sl_cos.o
                0x08005416                sl_cos_send_config
 .text.sl_cos_config_vcom
                0x08005428       0x1e ./gecko_sdk_4.4.1/hardware/driver/configuration_over_swo/src/sl_cos.o
                0x08005428                sl_cos_config_vcom
 .text.Default_Handler
                0x08005446        0x2 ./gecko_sdk_4.4.1/platform/Device/SiliconLabs/EFR32MG24/Source/startup_efr32mg24.o
                0x08005446                ULFRCO_IRQHandler
                0x08005446                AHB2AHB1_IRQHandler
                0x08005446                SW2_IRQHandler
                0x08005446                TIMER2_IRQHandler
                0x08005446                DebugMon_Handler
                0x08005446                USART0_TX_IRQHandler
                0x08005446                IADC_IRQHandler
                0x08005446                I2C0_IRQHandler
                0x08005446                LFXO_IRQHandler
                0x08005446                HardFault_Handler
                0x08005446                SMU_SECURE_IRQHandler
                0x08005446                SysTick_Handler
                0x08005446                SYSRTC_SEQ_IRQHandler
                0x08005446                EMUEFP_IRQHandler
                0x08005446                PendSV_Handler
                0x08005446                NMI_Handler
                0x08005446                SYNTH_IRQHandler
                0x08005446                HOSTMAILBOX_IRQHandler
                0x08005446                HFXO0_IRQHandler
                0x08005446                I2C1_IRQHandler
                0x08005446                WDOG0_IRQHandler
                0x08005446                TIMER3_IRQHandler
                0x08005446                SYSCFG_IRQHandler
                0x08005446                RFECA1_IRQHandler
                0x08005446                EMUDG_IRQHandler
                0x08005446                MSC_IRQHandler
                0x08005446                DPLL0_IRQHandler
                0x08005446                UsageFault_Handler
                0x08005446                WDOG1_IRQHandler
                0x08005446                M33CTI1_IRQHandler
                0x08005446                TIMER4_IRQHandler
                0x08005446                GPIO_EVEN_IRQHandler
                0x08005446                VDAC0_IRQHandler
                0x08005446                SEMBTX_IRQHandler
                0x08005446                SW0_IRQHandler
                0x08005446                TIMER0_IRQHandler
                0x08005446                MVP_IRQHandler
                0x08005446                LETIMER0_IRQHandler
                0x08005446                EUSART1_RX_IRQHandler
                0x08005446                TIMER1_IRQHandler
                0x08005446                HFRCO0_IRQHandler
                0x08005446                SecureFault_Handler
                0x08005446                BUFC_IRQHandler
                0x08005446                DCDC_IRQHandler
                0x08005446                MODEM_IRQHandler
                0x08005446                Default_Handler
                0x08005446                RAC_SEQ_IRQHandler
                0x08005446                FRC_PRI_IRQHandler
                0x08005446                EMU_IRQHandler
                0x08005446                SW3_IRQHandler
                0x08005446                KERNEL0_IRQHandler
                0x08005446                FRC_IRQHandler
                0x08005446                PCNT0_IRQHandler
                0x08005446                KERNEL1_IRQHandler
                0x08005446                AGC_IRQHandler
                0x08005446                EUSART1_TX_IRQHandler
                0x08005446                KEYSCAN_IRQHandler
                0x08005446                sl_app_properties
                0x08005446                HFRCOEM23_IRQHandler
                0x08005446                BURTC_IRQHandler
                0x08005446                SEMBRX_IRQHandler
                0x08005446                RFECA0_IRQHandler
                0x08005446                LFRCO_IRQHandler
                0x08005446                VDAC1_IRQHandler
                0x08005446                ACMP0_IRQHandler
                0x08005446                USART0_RX_IRQHandler
                0x08005446                MemManage_Handler
                0x08005446                AHB2AHB0_IRQHandler
                0x08005446                SVC_Handler
                0x08005446                SMU_S_PRIVILEGED_IRQHandler
                0x08005446                SW1_IRQHandler
                0x08005446                CMU_IRQHandler
                0x08005446                RAC_RSM_IRQHandler
                0x08005446                SETAMPERHOST_IRQHandler
                0x08005446                GPIO_ODD_IRQHandler
                0x08005446                AES_IRQHandler
                0x08005446                M33CTI0_IRQHandler
                0x08005446                ICACHE0_IRQHandler
                0x08005446                SMU_NS_PRIVILEGED_IRQHandler
                0x08005446                FPUEXH_IRQHandler
                0x08005446                PROTIMER_IRQHandler
                0x08005446                ACMP1_IRQHandler
                0x08005446                BusFault_Handler
                0x08005446                MPAHBRAM_IRQHandler
 .text.FlashToRamCopy
                0x08005448       0x16 ./gecko_sdk_4.4.1/platform/Device/SiliconLabs/EFR32MG24/Source/system_efr32mg24.o
                0x08005448                FlashToRamCopy
 .text.SystemCLKIN0Get
                0x0800545e        0x4 ./gecko_sdk_4.4.1/platform/Device/SiliconLabs/EFR32MG24/Source/system_efr32mg24.o
                0x0800545e                SystemCLKIN0Get
 .text.SystemLFRCOClockGet
                0x08005462        0x6 ./gecko_sdk_4.4.1/platform/Device/SiliconLabs/EFR32MG24/Source/system_efr32mg24.o
                0x08005462                SystemLFRCOClockGet
 .text.SystemULFRCOClockGet
                0x08005468        0x6 ./gecko_sdk_4.4.1/platform/Device/SiliconLabs/EFR32MG24/Source/system_efr32mg24.o
                0x08005468                SystemULFRCOClockGet
 .text.assertEFM
                0x0800546e        0x2 ./gecko_sdk_4.4.1/platform/common/src/sl_assert.o
                0x0800546e                assertEFM
 .text.sl_debug_swo_enable_itm
                0x08005470       0x16 ./gecko_sdk_4.4.1/platform/driver/debug/src/sl_debug_swo.o
                0x08005470                sl_debug_swo_enable_itm
 .text.sl_debug_swo_disable_itm
                0x08005486       0x18 ./gecko_sdk_4.4.1/platform/driver/debug/src/sl_debug_swo.o
                0x08005486                sl_debug_swo_disable_itm
 .text.sl_led_init
                0x0800549e        0x6 ./gecko_sdk_4.4.1/platform/driver/leddrv/src/sl_led.o
                0x0800549e                sl_led_init
 .text.sl_simple_led_init
                0x080054a4       0x22 ./gecko_sdk_4.4.1/platform/driver/leddrv/src/sl_simple_led.o
                0x080054a4                sl_simple_led_init
 .text.sl_simple_led_turn_on
                0x080054c6       0x12 ./gecko_sdk_4.4.1/platform/driver/leddrv/src/sl_simple_led.o
                0x080054c6                sl_simple_led_turn_on
 .text.sl_simple_led_turn_off
                0x080054d8       0x12 ./gecko_sdk_4.4.1/platform/driver/leddrv/src/sl_simple_led.o
                0x080054d8                sl_simple_led_turn_off
 .text.DMADRV_PeripheralMemory
                0x080054ea       0x34 ./gecko_sdk_4.4.1/platform/emdrv/dmadrv/src/dmadrv.o
                0x080054ea                DMADRV_PeripheralMemory
 .text.BUS_RegMaskedWrite
                0x0800551e       0x1e ./gecko_sdk_4.4.1/platform/emlib/src/em_cmu.o
 .text.waitStateMax
                0x0800553c       0x10 ./gecko_sdk_4.4.1/platform/emlib/src/em_cmu.o
 .text.CMU_UpdateWaitStates
                0x0800554c        0xc ./gecko_sdk_4.4.1/platform/emlib/src/em_cmu.o
                0x0800554c                CMU_UpdateWaitStates
 .text.pclkDivMax
                0x08005558        0xa ./gecko_sdk_4.4.1/platform/emlib/src/em_cmu.o
 .text.sli_em_cmu_SYSCLKInitPostClockSelect
                0x08005562       0x2a ./gecko_sdk_4.4.1/platform/emlib/src/em_cmu.o
                0x08005562                sli_em_cmu_SYSCLKInitPostClockSelect
 .text.CORE_EnterCritical
                0x0800558c        0x8 ./gecko_sdk_4.4.1/platform/emlib/src/em_core.o
                0x0800558c                CORE_EnterCritical
 .text.CORE_ExitCritical
                0x08005594        0x6 ./gecko_sdk_4.4.1/platform/emlib/src/em_core.o
                0x08005594                CORE_ExitCritical
 .text.CORE_EnterAtomic
                0x0800559a        0xc ./gecko_sdk_4.4.1/platform/emlib/src/em_core.o
                0x0800559a                CORE_EnterAtomic
 .text.CORE_ExitAtomic
                0x080055a6        0x6 ./gecko_sdk_4.4.1/platform/emlib/src/em_core.o
                0x080055a6                CORE_ExitAtomic
 .text.EMU_EFPEM01VScale
                0x080055ac        0x2 ./gecko_sdk_4.4.1/platform/emlib/src/em_emu.o
                0x080055ac                EMU_EFPEM01VScale
 .text.EMU_DCDCUpdatedHook
                0x080055ae        0x2 ./gecko_sdk_4.4.1/platform/emlib/src/em_emu.o
                0x080055ae                EMU_DCDCUpdatedHook
 .text.eusart_sync
                0x080055b0        0x8 ./gecko_sdk_4.4.1/platform/emlib/src/em_eusart.o
 .text.EUSART_Disable
                0x080055b8       0x34 ./gecko_sdk_4.4.1/platform/emlib/src/em_eusart.o
 .text.EUSART_Tx
                0x080055ec        0xa ./gecko_sdk_4.4.1/platform/emlib/src/em_eusart.o
                0x080055ec                EUSART_Tx
 .text.BUS_RegMaskedWrite
                0x080055f6       0x1e ./gecko_sdk_4.4.1/platform/emlib/src/em_gpio.o
 .text.GPIO_DbgLocationSet
                0x08005614        0x2 ./gecko_sdk_4.4.1/platform/emlib/src/em_gpio.o
                0x08005614                GPIO_DbgLocationSet
 .text.USART_SpiTransfer
                0x08005616       0x14 ./gecko_sdk_4.4.1/platform/emlib/src/em_usart.o
                0x08005616                USART_SpiTransfer
 .text.sl_iostream_write
                0x0800562a       0x22 ./gecko_sdk_4.4.1/platform/service/iostream/src/sl_iostream.o
                0x0800562a                sl_iostream_write
 .text.sl_iostream_read
                0x0800564c       0x30 ./gecko_sdk_4.4.1/platform/service/iostream/src/sl_iostream.o
                0x0800564c                sl_iostream_read
 .text.eusart_deinit
                0x0800567c       0x70 ./gecko_sdk_4.4.1/platform/service/iostream/src/sl_iostream_eusart.o
 .text.eusart_set_next_byte_detect
                0x080056ec       0x30 ./gecko_sdk_4.4.1/platform/service/iostream/src/sl_iostream_eusart.o
 .text.eusart_tx
                0x0800571c        0xc ./gecko_sdk_4.4.1/platform/service/iostream/src/sl_iostream_eusart.o
 .text.sl_iostream_eusart_irq_handler
                0x08005728       0x72 ./gecko_sdk_4.4.1/platform/service/iostream/src/sl_iostream_eusart.o
                0x08005728                sl_iostream_eusart_irq_handler
 .text._close   0x0800579a        0x4 ./gecko_sdk_4.4.1/platform/service/iostream/src/sl_iostream_retarget_stdio.o
                0x0800579a                _close
 .text._exit    0x0800579e        0x2 ./gecko_sdk_4.4.1/platform/service/iostream/src/sl_iostream_retarget_stdio.o
                0x0800579e                _exit
 .text._fstat   0x080057a0        0xa ./gecko_sdk_4.4.1/platform/service/iostream/src/sl_iostream_retarget_stdio.o
                0x080057a0                _fstat
 .text._isatty  0x080057aa        0x4 ./gecko_sdk_4.4.1/platform/service/iostream/src/sl_iostream_retarget_stdio.o
                0x080057aa                _isatty
 .text._lseek   0x080057ae        0x4 ./gecko_sdk_4.4.1/platform/service/iostream/src/sl_iostream_retarget_stdio.o
                0x080057ae                _lseek
 .text._read    0x080057b2       0x1c ./gecko_sdk_4.4.1/platform/service/iostream/src/sl_iostream_retarget_stdio.o
                0x080057b2                _read
 .text.set_auto_cr_lf
                0x080057ce        0x6 ./gecko_sdk_4.4.1/platform/service/iostream/src/sl_iostream_uart.o
 .text.get_auto_cr_lf
                0x080057d4        0x6 ./gecko_sdk_4.4.1/platform/service/iostream/src/sl_iostream_uart.o
 .text.delay_callback
                0x080057da        0x6 ./gecko_sdk_4.4.1/platform/service/sleeptimer/src/sl_sleeptimer.o
 .text.sl_sleeptimer_start_timer
                0x080057e0       0x48 ./gecko_sdk_4.4.1/platform/service/sleeptimer/src/sl_sleeptimer.o
                0x080057e0                sl_sleeptimer_start_timer
 .text.sl_sleeptimer_start_periodic_timer
                0x08005828       0x4a ./gecko_sdk_4.4.1/platform/service/sleeptimer/src/sl_sleeptimer.o
                0x08005828                sl_sleeptimer_start_periodic_timer
 .text.sleeptimer_hal_get_compare
                0x08005872        0x8 ./gecko_sdk_4.4.1/platform/service/sleeptimer/src/sl_sleeptimer_hal_sysrtc.o
                0x08005872                sleeptimer_hal_get_compare
 .text.sleeptimer_hal_enable_int
                0x0800587a       0x12 ./gecko_sdk_4.4.1/platform/service/sleeptimer/src/sl_sleeptimer_hal_sysrtc.o
                0x0800587a                sleeptimer_hal_enable_int
 .text.SYSRTC_APP_IRQHandler
                0x0800588c       0x34 ./gecko_sdk_4.4.1/platform/service/sleeptimer/src/sl_sleeptimer_hal_sysrtc.o
                0x0800588c                SYSRTC_APP_IRQHandler
 .text.sleeptimer_hal_get_timer_frequency
                0x080058c0        0x6 ./gecko_sdk_4.4.1/platform/service/sleeptimer/src/sl_sleeptimer_hal_sysrtc.o
                0x080058c0                sleeptimer_hal_get_timer_frequency
 .text.sl_system_init
                0x080058c6       0x1a ./gecko_sdk_4.4.1/platform/service/system/src/sl_system_init.o
                0x080058c6                sl_system_init
 .text.sl_system_process_action
                0x080058e0       0x16 ./gecko_sdk_4.4.1/platform/service/system/src/sl_system_process_action.o
                0x080058e0                sl_system_process_action
 .text._fwalk_sglue
                0x080058f6       0x3c c:/siliconlabs/simplicitystudio/v5/developer/toolchains/gnu_arm/12.2.rel1_2023.7/bin/../lib/gcc/arm-none-eabi/12.2.1/thumb/v8-m.main+fp/hard\libc_nano.a(libc_a-fwalk.o)
                0x080058f6                _fwalk_sglue
 .text._puts_r  0x08005932       0xaa c:/siliconlabs/simplicitystudio/v5/developer/toolchains/gnu_arm/12.2.rel1_2023.7/bin/../lib/gcc/arm-none-eabi/12.2.1/thumb/v8-m.main+fp/hard\libc_nano.a(libc_a-puts.o)
                0x08005932                _puts_r
 .text.__sread  0x080059dc       0x22 c:/siliconlabs/simplicitystudio/v5/developer/toolchains/gnu_arm/12.2.rel1_2023.7/bin/../lib/gcc/arm-none-eabi/12.2.1/thumb/v8-m.main+fp/hard\libc_nano.a(libc_a-stdio.o)
                0x080059dc                __sread
 .text.__swrite
                0x080059fe       0x38 c:/siliconlabs/simplicitystudio/v5/developer/toolchains/gnu_arm/12.2.rel1_2023.7/bin/../lib/gcc/arm-none-eabi/12.2.1/thumb/v8-m.main+fp/hard\libc_nano.a(libc_a-stdio.o)
                0x080059fe                __swrite
 .text.__sseek  0x08005a36       0x24 c:/siliconlabs/simplicitystudio/v5/developer/toolchains/gnu_arm/12.2.rel1_2023.7/bin/../lib/gcc/arm-none-eabi/12.2.1/thumb/v8-m.main+fp/hard\libc_nano.a(libc_a-stdio.o)
                0x08005a36                __sseek
 .text.__sclose
                0x08005a5a        0x8 c:/siliconlabs/simplicitystudio/v5/developer/toolchains/gnu_arm/12.2.rel1_2023.7/bin/../lib/gcc/arm-none-eabi/12.2.1/thumb/v8-m.main+fp/hard\libc_nano.a(libc_a-stdio.o)
                0x08005a5a                __sclose
 .text.__swbuf_r
                0x08005a62       0x7c c:/siliconlabs/simplicitystudio/v5/developer/toolchains/gnu_arm/12.2.rel1_2023.7/bin/../lib/gcc/arm-none-eabi/12.2.1/thumb/v8-m.main+fp/hard\libc_nano.a(libc_a-wbuf.o)
                0x08005a62                __swbuf_r
 .text.memset   0x08005ade       0x10 c:/siliconlabs/simplicitystudio/v5/developer/toolchains/gnu_arm/12.2.rel1_2023.7/bin/../lib/gcc/arm-none-eabi/12.2.1/thumb/v8-m.main+fp/hard\libc_nano.a(libc_a-memset.o)
                0x08005ade                memset
 .text.__retarget_lock_init_recursive
                0x08005aee        0x2 c:/siliconlabs/simplicitystudio/v5/developer/toolchains/gnu_arm/12.2.rel1_2023.7/bin/../lib/gcc/arm-none-eabi/12.2.1/thumb/v8-m.main+fp/hard\libc_nano.a(libc_a-lock.o)
                0x08005aee                __retarget_lock_init_recursive
 .text.__retarget_lock_acquire_recursive
                0x08005af0        0x2 c:/siliconlabs/simplicitystudio/v5/developer/toolchains/gnu_arm/12.2.rel1_2023.7/bin/../lib/gcc/arm-none-eabi/12.2.1/thumb/v8-m.main+fp/hard\libc_nano.a(libc_a-lock.o)
                0x08005af0                __retarget_lock_acquire_recursive
 .text.__retarget_lock_release_recursive
                0x08005af2        0x2 c:/siliconlabs/simplicitystudio/v5/developer/toolchains/gnu_arm/12.2.rel1_2023.7/bin/../lib/gcc/arm-none-eabi/12.2.1/thumb/v8-m.main+fp/hard\libc_nano.a(libc_a-lock.o)
                0x08005af2                __retarget_lock_release_recursive
 .text.memcpy   0x08005af4       0x1a c:/siliconlabs/simplicitystudio/v5/developer/toolchains/gnu_arm/12.2.rel1_2023.7/bin/../lib/gcc/arm-none-eabi/12.2.1/thumb/v8-m.main+fp/hard\libc_nano.a(libc_a-memcpy-stub.o)
                0x08005af4                memcpy
 .text.__sfputc_r
                0x08005b0e       0x2e c:/siliconlabs/simplicitystudio/v5/developer/toolchains/gnu_arm/12.2.rel1_2023.7/bin/../lib/gcc/arm-none-eabi/12.2.1/thumb/v8-m.main+fp/hard\libc_nano.a(libc_a-nano-vfprintf.o)
 .text.__sfputs_r
                0x08005b3c       0x24 c:/siliconlabs/simplicitystudio/v5/developer/toolchains/gnu_arm/12.2.rel1_2023.7/bin/../lib/gcc/arm-none-eabi/12.2.1/thumb/v8-m.main+fp/hard\libc_nano.a(libc_a-nano-vfprintf.o)
                0x08005b3c                __sfputs_r
 .text._printf_common
                0x08005b60       0xe4 c:/siliconlabs/simplicitystudio/v5/developer/toolchains/gnu_arm/12.2.rel1_2023.7/bin/../lib/gcc/arm-none-eabi/12.2.1/thumb/v8-m.main+fp/hard\libc_nano.a(libc_a-nano-vfprintf_i.o)
                0x08005b60                _printf_common
 .text.__sflush_r
                0x08005c44      0x106 c:/siliconlabs/simplicitystudio/v5/developer/toolchains/gnu_arm/12.2.rel1_2023.7/bin/../lib/gcc/arm-none-eabi/12.2.1/thumb/v8-m.main+fp/hard\libc_nano.a(libc_a-fflush.o)
                0x08005c44                __sflush_r
 .text._fflush_r
                0x08005d4a       0x50 c:/siliconlabs/simplicitystudio/v5/developer/toolchains/gnu_arm/12.2.rel1_2023.7/bin/../lib/gcc/arm-none-eabi/12.2.1/thumb/v8-m.main+fp/hard\libc_nano.a(libc_a-fflush.o)
                0x08005d4a                _fflush_r
 .text.__swhatbuf_r
                0x08005d9a       0x4a c:/siliconlabs/simplicitystudio/v5/developer/toolchains/gnu_arm/12.2.rel1_2023.7/bin/../lib/gcc/arm-none-eabi/12.2.1/thumb/v8-m.main+fp/hard\libc_nano.a(libc_a-makebuf.o)
                0x08005d9a                __swhatbuf_r
 .text.__smakebuf_r
                0x08005de4       0x78 c:/siliconlabs/simplicitystudio/v5/developer/toolchains/gnu_arm/12.2.rel1_2023.7/bin/../lib/gcc/arm-none-eabi/12.2.1/thumb/v8-m.main+fp/hard\libc_nano.a(libc_a-makebuf.o)
                0x08005de4                __smakebuf_r
 .text.memchr   0x08005e5c       0x1c c:/siliconlabs/simplicitystudio/v5/developer/toolchains/gnu_arm/12.2.rel1_2023.7/bin/../lib/gcc/arm-none-eabi/12.2.1/thumb/v8-m.main+fp/hard\libc_nano.a(libc_a-memchr-stub.o)
                0x08005e5c                memchr
                0x08005e80                . = ALIGN (0x20)
 *fill*         0x08005e78        0x8 
                0x08005e80                linker_code_end = .
 *(.init)
 .init          0x08005e80        0x4 c:/siliconlabs/simplicitystudio/v5/developer/toolchains/gnu_arm/12.2.rel1_2023.7/bin/../lib/gcc/arm-none-eabi/12.2.1/thumb/v8-m.main+fp/hard/crti.o
                0x08005e80                _init
 .init          0x08005e84        0x8 c:/siliconlabs/simplicitystudio/v5/developer/toolchains/gnu_arm/12.2.rel1_2023.7/bin/../lib/gcc/arm-none-eabi/12.2.1/thumb/v8-m.main+fp/hard/crtn.o
 *(.fini)
 .fini          0x08005e8c        0x4 c:/siliconlabs/simplicitystudio/v5/developer/toolchains/gnu_arm/12.2.rel1_2023.7/bin/../lib/gcc/arm-none-eabi/12.2.1/thumb/v8-m.main+fp/hard/crti.o
                0x08005e8c                _fini
 .fini          0x08005e90        0x8 c:/siliconlabs/simplicitystudio/v5/developer/toolchains/gnu_arm/12.2.rel1_2023.7/bin/../lib/gcc/arm-none-eabi/12.2.1/thumb/v8-m.main+fp/hard/crtn.o
 *crtbegin.o(.ctors)
 *crtbegin?.o(.ctors)
 *(EXCLUDE_FILE(*crtend.o *crtend?.o) .ctors)
 *(SORT_BY_NAME(.ctors.*))
 *(.ctors)
 *crtbegin.o(.dtors)
 *crtbegin?.o(.dtors)
 *(EXCLUDE_FILE(*crtend.o *crtend?.o) .dtors)
 *(SORT_BY_NAME(.dtors.*))
 *(.dtors)
                0x08005e98                __code_classification_validator_start__ = .
                0x08005eb8                . = (. + 0x20)
 *fill*         0x08005e98       0x20 
 *(code_classification_validator)
                0x08005ec0                . = ALIGN (0x20)
 *fill*         0x08005eb8        0x8 
                0x08005ec0                __code_classification_validator_end__ = .
 *(.rodata*)
 .rodata.app_init.str1.1
                0x08005ec0       0xdb ./app.o
 .rodata.as_init.str1.1
                0x08005f9b       0x29 ./as.o
 .rodata.mpl_init.str1.1
                0x08005fc4       0x13 ./mpl.o
                                 0x2d (size before relaxing)
 .rodata.SI7021_measure.constprop.0.str1.1
                0x08005fd7        0x8 ./si.o
 .rodata.i2cspm_app_init.str1.1
                0x08005fdf        0x7 ./si.o
                                 0x21 (size before relaxing)
 .rodata.sl_iostream_eusart_init_vcom.str1.1
                0x08005fe6       0x2f ./autogen/sl_iostream_init_eusart_instances.o
 *fill*         0x08006015        0x3 
 .rodata        0x08006018       0x20 ./autogen/sl_iostream_init_eusart_instances.o
 .rodata.sl_led_led1
                0x08006038       0x18 ./autogen/sl_simple_led_instances.o
                0x08006038                sl_led_led1
 .rodata.sl_led_led0
                0x08006050       0x18 ./autogen/sl_simple_led_instances.o
                0x08006050                sl_led_led0
 .rodata.sl_board_enable_sensor.str1.1
                0x08006068       0x3e ./gecko_sdk_4.4.1/hardware/board/src/sl_board_control_gpio.o
 *fill*         0x080060a6        0x2 
 .rodata        0x080060a8       0x1c ./gecko_sdk_4.4.1/hardware/driver/mx25_flash_shutdown/src/sl_mx25_flash_shutdown_usart/sl_mx25_flash_shutdown.o
 .rodata.I2CSPM_Init.str1.1
                0x080060c4       0x9f ./gecko_sdk_4.4.1/platform/driver/i2cspm/src/sl_i2cspm.o
 *fill*         0x08006163        0x1 
 .rodata.CSWTCH.10
                0x08006164        0x8 ./gecko_sdk_4.4.1/platform/driver/i2cspm/src/sl_i2cspm.o
 .rodata.GPIO_PinOutClear.str1.1
                0x0800616c       0x65 ./gecko_sdk_4.4.1/platform/driver/leddrv/src/sl_simple_led.o
 .rodata.CSWTCH.18
                0x0800616c        0x8 ./gecko_sdk_4.4.1/platform/driver/leddrv/src/sl_simple_led.o
 .rodata        0x08006174        0x4 ./gecko_sdk_4.4.1/platform/emdrv/dmadrv/src/dmadrv.o
 .rodata.HFRCODPLLDevinfoGet.str1.1
                0x08006178       0x2f ./gecko_sdk_4.4.1/platform/emlib/src/em_cmu.o
 .rodata.EMU_VScaleEM01.str1.1
                0x080061a7       0x2f ./gecko_sdk_4.4.1/platform/emlib/src/em_emu.o
 .rodata.EUSART_Enable.str1.1
                0x080061d6       0x32 ./gecko_sdk_4.4.1/platform/emlib/src/em_eusart.o
 .rodata.GPIO_PinOutSet.str1.1
                0x08006208       0x65 ./gecko_sdk_4.4.1/platform/emlib/src/em_gpio.o
 .rodata.GPIO_ExtIntConfig.str1.1
                0x08006208       0x30 ./gecko_sdk_4.4.1/platform/emlib/src/em_gpio.o
 .rodata.CSWTCH.31
                0x08006238        0x8 ./gecko_sdk_4.4.1/platform/emlib/src/em_gpio.o
 .rodata.I2C_BusFreqGet.str1.1
                0x08006240       0x2f ./gecko_sdk_4.4.1/platform/emlib/src/em_i2c.o
 .rodata.i2cNSum
                0x0800626f        0x4 ./gecko_sdk_4.4.1/platform/emlib/src/em_i2c.o
 .rodata.LDMA_EnableChannelRequest.str1.1
                0x08006273       0x94 ./gecko_sdk_4.4.1/platform/emlib/src/em_ldma.o
 .rodata.USART_BaudrateAsyncSet.str1.1
                0x08006307       0x31 ./gecko_sdk_4.4.1/platform/emlib/src/em_usart.o
 .rodata.sl_hal_sysrtc_init_group.str1.1
                0x08006338       0x3f ./gecko_sdk_4.4.1/platform/peripheral/src/peripheral_sysrtc.o
 .rodata        0x08006377        0x7 ./gecko_sdk_4.4.1/platform/service/device_init/src/sl_device_init_dcdc_s2.o
 *fill*         0x0800637e        0x2 
 .rodata        0x08006380       0x28 ./gecko_sdk_4.4.1/platform/service/device_init/src/sl_device_init_hfxo_s2.o
 .rodata        0x080063a8       0x14 ./gecko_sdk_4.4.1/platform/service/device_init/src/sl_device_init_lfxo_s2.o
 .rodata._write.str1.1
                0x080063bc       0x4e ./gecko_sdk_4.4.1/platform/service/iostream/src/sl_iostream_retarget_stdio.o
 .rodata.get_write_ptr.str1.1
                0x0800640a       0x44 ./gecko_sdk_4.4.1/platform/service/iostream/src/sl_iostream_uart.o
 .rodata.process_timer_irq.str1.1
                0x0800644e       0x43 ./gecko_sdk_4.4.1/platform/service/sleeptimer/src/sl_sleeptimer.o
 .rodata.sl_udelay_wait.str1.1
                0x08006491       0x3b ./gecko_sdk_4.4.1/platform/service/udelay/src/sl_udelay.o
 .rodata._vfprintf_r.str1.1
                0x080064cc       0x11 c:/siliconlabs/simplicitystudio/v5/developer/toolchains/gnu_arm/12.2.rel1_2023.7/bin/../lib/gcc/arm-none-eabi/12.2.1/thumb/v8-m.main+fp/hard\libc_nano.a(libc_a-nano-vfprintf.o)
 .rodata._printf_i.str1.1
                0x080064dd       0x22 c:/siliconlabs/simplicitystudio/v5/developer/toolchains/gnu_arm/12.2.rel1_2023.7/bin/../lib/gcc/arm-none-eabi/12.2.1/thumb/v8-m.main+fp/hard\libc_nano.a(libc_a-nano-vfprintf_i.o)
 *(.eh_frame*)
 *fill*         0x080064ff        0x1 
 .eh_frame      0x08006500        0x0 c:/siliconlabs/simplicitystudio/v5/developer/toolchains/gnu_arm/12.2.rel1_2023.7/bin/../lib/gcc/arm-none-eabi/12.2.1/thumb/v8-m.main+fp/hard/crtbegin.o

.glue_7         0x08006500        0x0
 .glue_7        0x08006500        0x0 linker stubs

.glue_7t        0x08006500        0x0
 .glue_7t       0x08006500        0x0 linker stubs

.vfp11_veneer   0x08006500        0x0
 .vfp11_veneer  0x08006500        0x0 linker stubs

.v4_bx          0x08006500        0x0
 .v4_bx         0x08006500        0x0 linker stubs

.iplt           0x08006500        0x0
 .iplt          0x08006500        0x0 c:/siliconlabs/simplicitystudio/v5/developer/toolchains/gnu_arm/12.2.rel1_2023.7/bin/../lib/gcc/arm-none-eabi/12.2.1/thumb/v8-m.main+fp/hard/crtbegin.o

.ARM.extab
 *(.ARM.extab* .gnu.linkonce.armextab.*)
                0x08006500                __exidx_start = .

.ARM.exidx      0x08006500        0x8
 *(.ARM.exidx* .gnu.linkonce.armexidx.*)
 .ARM.exidx     0x08006500        0x8 c:/siliconlabs/simplicitystudio/v5/developer/toolchains/gnu_arm/12.2.rel1_2023.7/bin/../lib/gcc/arm-none-eabi/12.2.1/thumb/v8-m.main+fp/hard/crt0.o
                                 0x10 (size before relaxing)
 .ARM.exidx.text.__udivmoddi4
                0x08006508        0x0 c:/siliconlabs/simplicitystudio/v5/developer/toolchains/gnu_arm/12.2.rel1_2023.7/bin/../lib/gcc/arm-none-eabi/12.2.1/thumb/v8-m.main+fp/hard\libgcc.a(_udivmoddi4.o)
                                  0x8 (size before relaxing)
                0x08006508                __exidx_end = .

.rel.dyn        0x08006508        0x0
 .rel.iplt      0x08006508        0x0 c:/siliconlabs/simplicitystudio/v5/developer/toolchains/gnu_arm/12.2.rel1_2023.7/bin/../lib/gcc/arm-none-eabi/12.2.1/thumb/v8-m.main+fp/hard/crtbegin.o

.copy.table     0x08006508        0xc
                0x08006508                . = ALIGN (0x4)
                0x08006508                __copy_table_start__ = .
                0x08006508        0x4 LONG 0x8006514 __etext
                0x0800650c        0x4 LONG 0x20001000 __data_start__
                0x08006510        0x4 LONG 0x27 ((__data_end__ - __data_start__) / 0x4)
                0x08006514                __copy_table_end__ = .

.zero.table     0x08006514        0x0
                0x08006514                . = ALIGN (0x4)
                0x08006514                __zero_table_start__ = .
                0x08006514                __zero_table_end__ = .
                0x08006514                __etext = .
                0x20000000                . = ORIGIN (RAM)

.stack          0x20000000     0x1000
                0x20000000                __StackLimit = .
 *(.stack*)
 .stack         0x20000000     0x1000 ./gecko_sdk_4.4.1/platform/common/toolchain/src/sl_memory.o
                0x20001000                . = ALIGN (0x4)
                0x20001000                __StackTop = .
                0x20001000                PROVIDE (__stack = __StackTop)

.noinit
 *(.noinit*)

.data           0x20001000       0x9c load address 0x08006514
                0x20001000                . = ALIGN (0x4)
                0x20001000                __data_start__ = .
 *(vtable)
 *(SORT_BY_ALIGNMENT(.data*))
 .data.init_sensor
                0x20001000       0x14 ./autogen/sl_i2cspm_init.o
                0x20001000                init_sensor
 .data.sl_i2cspm_sensor
                0x20001014        0x4 ./autogen/sl_i2cspm_init.o
                0x20001014                sl_i2cspm_sensor
 .data.SystemCoreClock
                0x20001018        0x4 ./gecko_sdk_4.4.1/platform/Device/SiliconLabs/EFR32MG24/Source/system_efr32mg24.o
                0x20001018                SystemCoreClock
 .data.SystemHFRCODPLLClock
                0x2000101c        0x4 ./gecko_sdk_4.4.1/platform/Device/SiliconLabs/EFR32MG24/Source/system_efr32mg24.o
 .data.SystemLFXOClock
                0x20001020        0x4 ./gecko_sdk_4.4.1/platform/Device/SiliconLabs/EFR32MG24/Source/system_efr32mg24.o
 .data.SystemHFXOClock
                0x20001024        0x4 ./gecko_sdk_4.4.1/platform/Device/SiliconLabs/EFR32MG24/Source/system_efr32mg24.o
 .data.heap_end.0
                0x20001028        0x4 ./gecko_sdk_4.4.1/platform/common/toolchain/src/sl_memory.o
 .data.__sglue  0x2000102c        0xc c:/siliconlabs/simplicitystudio/v5/developer/toolchains/gnu_arm/12.2.rel1_2023.7/bin/../lib/gcc/arm-none-eabi/12.2.1/thumb/v8-m.main+fp/hard\libc_nano.a(libc_a-findfp.o)
                0x2000102c                __sglue
 .data._impure_ptr
                0x20001038        0x4 c:/siliconlabs/simplicitystudio/v5/developer/toolchains/gnu_arm/12.2.rel1_2023.7/bin/../lib/gcc/arm-none-eabi/12.2.1/thumb/v8-m.main+fp/hard\libc_nano.a(libc_a-impure.o)
                0x20001038                _impure_ptr
 .data._impure_data
                0x2000103c       0x4c c:/siliconlabs/simplicitystudio/v5/developer/toolchains/gnu_arm/12.2.rel1_2023.7/bin/../lib/gcc/arm-none-eabi/12.2.1/thumb/v8-m.main+fp/hard\libc_nano.a(libc_a-impure.o)
                0x2000103c                _impure_data
 .data.hfxo_precision
                0x20001088        0x2 ./gecko_sdk_4.4.1/platform/emlib/src/em_cmu.o
 .data.lfxo_precision
                0x2000108a        0x2 ./gecko_sdk_4.4.1/platform/emlib/src/em_cmu.o
 .data.simple_led1_context
                0x2000108c        0x3 ./autogen/sl_simple_led_instances.o
                0x2000108c                simple_led1_context
 .data.simple_led0_context
                0x2000108f        0x3 ./autogen/sl_simple_led_instances.o
                0x2000108f                simple_led0_context
 .data.ctuneDelta
                0x20001092        0x1 ./gecko_sdk_4.4.1/platform/emlib/src/em_cmu.o
 .data.cc_disabled
                0x20001093        0x1 ./gecko_sdk_4.4.1/platform/service/sleeptimer/src/sl_sleeptimer_hal_sysrtc.o
                0x20001094                . = ALIGN (0x4)
                [!provide]                PROVIDE (__ram_func_section_start = .)
 *(.ram)
                [!provide]                PROVIDE (__ram_func_section_end = .)
                0x20001094                . = ALIGN (0x4)
                0x20001094                PROVIDE (__preinit_array_start = .)
 *(.preinit_array)
                0x20001094                PROVIDE (__preinit_array_end = .)
                0x20001094                . = ALIGN (0x4)
                0x20001094                PROVIDE (__init_array_start = .)
 *(SORT_BY_NAME(.init_array.*))
 *(.init_array)
 .init_array    0x20001094        0x4 c:/siliconlabs/simplicitystudio/v5/developer/toolchains/gnu_arm/12.2.rel1_2023.7/bin/../lib/gcc/arm-none-eabi/12.2.1/thumb/v8-m.main+fp/hard/crtbegin.o
                0x20001098                PROVIDE (__init_array_end = .)
                0x20001098                . = ALIGN (0x4)
                [!provide]                PROVIDE (__fini_array_start = .)
 *(SORT_BY_NAME(.fini_array.*))
 *(.fini_array)
 .fini_array    0x20001098        0x4 c:/siliconlabs/simplicitystudio/v5/developer/toolchains/gnu_arm/12.2.rel1_2023.7/bin/../lib/gcc/arm-none-eabi/12.2.1/thumb/v8-m.main+fp/hard/crtbegin.o
                [!provide]                PROVIDE (__fini_array_end = .)
                0x2000109c                . = ALIGN (0x4)
                0x2000109c                __data_end__ = .

.tm_clone_table
                0x2000109c        0x0 load address 0x080065b0
 .tm_clone_table
                0x2000109c        0x0 c:/siliconlabs/simplicitystudio/v5/developer/toolchains/gnu_arm/12.2.rel1_2023.7/bin/../lib/gcc/arm-none-eabi/12.2.1/thumb/v8-m.main+fp/hard/crtbegin.o
 .tm_clone_table
                0x2000109c        0x0 c:/siliconlabs/simplicitystudio/v5/developer/toolchains/gnu_arm/12.2.rel1_2023.7/bin/../lib/gcc/arm-none-eabi/12.2.1/thumb/v8-m.main+fp/hard/crtend.o

.igot.plt       0x2000109c        0x0 load address 0x080065b0
 .igot.plt      0x2000109c        0x0 c:/siliconlabs/simplicitystudio/v5/developer/toolchains/gnu_arm/12.2.rel1_2023.7/bin/../lib/gcc/arm-none-eabi/12.2.1/thumb/v8-m.main+fp/hard/crtbegin.o

.bss            0x2000109c      0x3e8 load address 0x080065b0
                0x2000109c                . = ALIGN (0x4)
                0x2000109c                __bss_start__ = .
 *(SORT_BY_ALIGNMENT(.bss*))
 .bss.object.0  0x2000109c       0x18 c:/siliconlabs/simplicitystudio/v5/developer/toolchains/gnu_arm/12.2.rel1_2023.7/bin/../lib/gcc/arm-none-eabi/12.2.1/thumb/v8-m.main+fp/hard/crtbegin.o
 .bss.delay_timer
                0x200010b4       0x20 ./si.o
 .bss.low_limit
                0x200010d4        0x4 ./si.o
 .bss.high_limit
                0x200010d8        0x4 ./si.o
 .bss.start_temperature
                0x200010dc        0x4 ./si.o
 .bss.relative_humidity
                0x200010e0        0x4 ./si.o
 .bss.context_vcom
                0x200010e4       0x64 ./autogen/sl_iostream_init_eusart_instances.o
 .bss.sl_iostream_vcom
                0x20001148       0x18 ./autogen/sl_iostream_init_eusart_instances.o
 .bss.dmaXfer   0x20001160      0x100 ./gecko_sdk_4.4.1/platform/emdrv/dmadrv/src/dmadrv.o
 .bss.chTable   0x20001260       0x80 ./gecko_sdk_4.4.1/platform/emdrv/dmadrv/src/dmadrv.o
 .bss.i2cTransfer
                0x200012e0       0x18 ./gecko_sdk_4.4.1/platform/emlib/src/em_i2c.o
 .bss.sli_iostream_default
                0x200012f8        0x4 ./gecko_sdk_4.4.1/platform/service/iostream/src/sl_iostream.o
 .bss.max_millisecond_conversion
                0x200012fc        0x4 ./gecko_sdk_4.4.1/platform/service/sleeptimer/src/sl_sleeptimer.o
 .bss.last_delta_update_count
                0x20001300        0x4 ./gecko_sdk_4.4.1/platform/service/sleeptimer/src/sl_sleeptimer.o
 .bss.timer_head
                0x20001304        0x4 ./gecko_sdk_4.4.1/platform/service/sleeptimer/src/sl_sleeptimer.o
 .bss.timer_frequency
                0x20001308        0x4 ./gecko_sdk_4.4.1/platform/service/sleeptimer/src/sl_sleeptimer.o
 .bss.__sf      0x2000130c      0x138 c:/siliconlabs/simplicitystudio/v5/developer/toolchains/gnu_arm/12.2.rel1_2023.7/bin/../lib/gcc/arm-none-eabi/12.2.1/thumb/v8-m.main+fp/hard\libc_nano.a(libc_a-findfp.o)
                0x2000130c                __sf
 .bss.__stdio_exit_handler
                0x20001444        0x4 c:/siliconlabs/simplicitystudio/v5/developer/toolchains/gnu_arm/12.2.rel1_2023.7/bin/../lib/gcc/arm-none-eabi/12.2.1/thumb/v8-m.main+fp/hard\libc_nano.a(libc_a-findfp.o)
                0x20001444                __stdio_exit_handler
 .bss.errno     0x20001448        0x4 c:/siliconlabs/simplicitystudio/v5/developer/toolchains/gnu_arm/12.2.rel1_2023.7/bin/../lib/gcc/arm-none-eabi/12.2.1/thumb/v8-m.main+fp/hard\libc_nano.a(libc_a-reent.o)
                0x20001448                errno
 .bss.__malloc_sbrk_start
                0x2000144c        0x4 c:/siliconlabs/simplicitystudio/v5/developer/toolchains/gnu_arm/12.2.rel1_2023.7/bin/../lib/gcc/arm-none-eabi/12.2.1/thumb/v8-m.main+fp/hard\libc_nano.a(libc_a-mallocr.o)
                0x2000144c                __malloc_sbrk_start
 .bss.__malloc_free_list
                0x20001450        0x4 c:/siliconlabs/simplicitystudio/v5/developer/toolchains/gnu_arm/12.2.rel1_2023.7/bin/../lib/gcc/arm-none-eabi/12.2.1/thumb/v8-m.main+fp/hard\libc_nano.a(libc_a-mallocr.o)
                0x20001450                __malloc_free_list
 .bss.overflow_counter
                0x20001454        0x2 ./gecko_sdk_4.4.1/platform/service/sleeptimer/src/sl_sleeptimer.o
 .bss.completed.1
                0x20001456        0x1 c:/siliconlabs/simplicitystudio/v5/developer/toolchains/gnu_arm/12.2.rel1_2023.7/bin/../lib/gcc/arm-none-eabi/12.2.1/thumb/v8-m.main+fp/hard/crtbegin.o
 .bss.read_sensor_data
                0x20001457        0x1 ./si.o
 .bss.rx_buffer_vcom
                0x20001458       0x20 ./autogen/sl_iostream_init_eusart_instances.o
 .bss.initialized
                0x20001478        0x1 ./gecko_sdk_4.4.1/platform/emdrv/dmadrv/src/dmadrv.o
 .bss.vScaleEM01Config
                0x20001479        0x1 ./gecko_sdk_4.4.1/platform/emlib/src/em_emu.o
 .bss.dali_rx_nb_packets
                0x2000147a        0x2 ./gecko_sdk_4.4.1/platform/emlib/src/em_eusart.o
 .bss.dali_tx_nb_packets
                0x2000147c        0x2 ./gecko_sdk_4.4.1/platform/emlib/src/em_eusart.o
 .bss.sleep_on_isr_exit
                0x2000147e        0x1 ./gecko_sdk_4.4.1/platform/service/sleeptimer/src/sl_sleeptimer.o
 .bss.next_timer_to_expire_is_power_manager
                0x2000147f        0x1 ./gecko_sdk_4.4.1/platform/service/sleeptimer/src/sl_sleeptimer.o
 .bss.is_sleeptimer_initialized
                0x20001480        0x1 ./gecko_sdk_4.4.1/platform/service/sleeptimer/src/sl_sleeptimer.o
 .bss.__lock___malloc_recursive_mutex
                0x20001481        0x1 c:/siliconlabs/simplicitystudio/v5/developer/toolchains/gnu_arm/12.2.rel1_2023.7/bin/../lib/gcc/arm-none-eabi/12.2.1/thumb/v8-m.main+fp/hard\libc_nano.a(libc_a-lock.o)
                0x20001481                __lock___malloc_recursive_mutex
 .bss.__lock___sfp_recursive_mutex
                0x20001482        0x1 c:/siliconlabs/simplicitystudio/v5/developer/toolchains/gnu_arm/12.2.rel1_2023.7/bin/../lib/gcc/arm-none-eabi/12.2.1/thumb/v8-m.main+fp/hard\libc_nano.a(libc_a-lock.o)
                0x20001482                __lock___sfp_recursive_mutex
 *(COMMON)
                0x20001484                . = ALIGN (0x4)
 *fill*         0x20001483        0x1 
                0x20001484                __bss_end__ = .
                0x20001484                __ramfuncs_start__ = .
                0x20001484                __vma_ramfuncs_start__ = .
                0x080065b0                __lma_ramfuncs_start__ = (__etext + SIZEOF (.data))
                0x00000000                __text_application_ram_offset__ = (. - __vma_ramfuncs_start__)

text_application_ram
                0x20001484        0x0 load address 0x080065b0
                0x20001484                . = ALIGN (0x4)
                0x20001484                __text_application_ram_start__ = .
 *(text_application_ram)
                0x20001484                . = ALIGN (0x4)
                0x20001484                __text_application_ram_end__ = .
                0x20001484                . = ALIGN (0x4)
                0x20001484                __vma_ramfuncs_end__ = .
                0x080065b0                __lma_ramfuncs_end__ = ((__lma_ramfuncs_start__ + __text_application_ram_offset__) + SIZEOF (text_application_ram))
                0x20001484                __ramfuncs_end__ = .

.heap           0x20001488      0x800
                0x20001488                __HeapBase = .
                0x20001488                __end__ = .
                0x20001488                end = __end__
                0x20001488                _end = __end__
 *(.heap*)
 .heap          0x20001488      0x800 ./gecko_sdk_4.4.1/platform/common/toolchain/src/sl_memory.o
                0x20040000                __HeapLimit = (ORIGIN (RAM) + LENGTH (RAM))
                0x0003eb78                __heap_size = (__HeapLimit - __HeapBase)
                0x20040000                __ram_end__ = 0x20040000
                0x0817e000                __main_flash_end__ = 0x817e000

.internal_storage
 *(.internal_storage*)

.nvm
 *(.simee*)
                0x0817e000                linker_nvm_end = __main_flash_end__
                0x0817e000                linker_nvm_begin = (linker_nvm_end - SIZEOF (.nvm))
                0x00000000                linker_nvm_size = SIZEOF (.nvm)
                0x0817e000                linker_storage_end = linker_nvm_begin
                0x0817e000                __nvm3Base = linker_nvm_begin
                0x0817e000                linker_storage_begin = (linker_storage_end - SIZEOF (.internal_storage))
                0x00000000                linker_storage_size = SIZEOF (.internal_storage)
                0x00000001                ASSERT ((linker_storage_begin >= (__etext + SIZEOF (.data))), FLASH memory overflowed !)
                0x0817e000                app_flash_end = 0x817e000
                0x00000001                ASSERT (((linker_nvm_begin + SIZEOF (.nvm)) <= app_flash_end), NVM3 is excessing the flash size !)
OUTPUT(LPHR_Software.axf elf32-littlearm)
LOAD linker stubs

.ARM.attributes
                0x00000000       0x36
 .ARM.attributes
                0x00000000       0x26 c:/siliconlabs/simplicitystudio/v5/developer/toolchains/gnu_arm/12.2.rel1_2023.7/bin/../lib/gcc/arm-none-eabi/12.2.1/thumb/v8-m.main+fp/hard/crti.o
 .ARM.attributes
                0x00000026       0x38 c:/siliconlabs/simplicitystudio/v5/developer/toolchains/gnu_arm/12.2.rel1_2023.7/bin/../lib/gcc/arm-none-eabi/12.2.1/thumb/v8-m.main+fp/hard/crtbegin.o
 .ARM.attributes
                0x0000005e       0x24 c:/siliconlabs/simplicitystudio/v5/developer/toolchains/gnu_arm/12.2.rel1_2023.7/bin/../lib/gcc/arm-none-eabi/12.2.1/thumb/v8-m.main+fp/hard/crt0.o
 .ARM.attributes
                0x00000082       0x3a ./app.o
 .ARM.attributes
                0x000000bc       0x3a ./as.o
 .ARM.attributes
                0x000000f6       0x3a ./main.o
 .ARM.attributes
                0x00000130       0x3a ./mpl.o
 .ARM.attributes
                0x0000016a       0x3a ./si.o
 .ARM.attributes
                0x000001a4       0x3a ./autogen/sl_board_default_init.o
 .ARM.attributes
                0x000001de       0x3a ./autogen/sl_device_init_clocks.o
 .ARM.attributes
                0x00000218       0x3a ./autogen/sl_event_handler.o
 .ARM.attributes
                0x00000252       0x3a ./autogen/sl_i2cspm_init.o
 .ARM.attributes
                0x0000028c       0x3a ./autogen/sl_iostream_init_eusart_instances.o
 .ARM.attributes
                0x000002c6       0x3a ./autogen/sl_simple_led_instances.o
 .ARM.attributes
                0x00000300       0x3a ./gecko_sdk_4.4.1/hardware/board/src/sl_board_control_gpio.o
 .ARM.attributes
                0x0000033a       0x3a ./gecko_sdk_4.4.1/hardware/board/src/sl_board_init.o
 .ARM.attributes
                0x00000374       0x3a ./gecko_sdk_4.4.1/hardware/driver/configuration_over_swo/src/sl_cos.o
 .ARM.attributes
                0x000003ae       0x3a ./gecko_sdk_4.4.1/hardware/driver/mx25_flash_shutdown/src/sl_mx25_flash_shutdown_usart/sl_mx25_flash_shutdown.o
 .ARM.attributes
                0x000003e8       0x3a ./gecko_sdk_4.4.1/platform/Device/SiliconLabs/EFR32MG24/Source/startup_efr32mg24.o
 .ARM.attributes
                0x00000422       0x3a ./gecko_sdk_4.4.1/platform/Device/SiliconLabs/EFR32MG24/Source/system_efr32mg24.o
 .ARM.attributes
                0x0000045c       0x3a ./gecko_sdk_4.4.1/platform/common/src/sl_assert.o
 .ARM.attributes
                0x00000496       0x3a ./gecko_sdk_4.4.1/platform/common/toolchain/src/sl_memory.o
 .ARM.attributes
                0x000004d0       0x3a ./gecko_sdk_4.4.1/platform/driver/debug/src/sl_debug_swo.o
 .ARM.attributes
                0x0000050a       0x3a ./gecko_sdk_4.4.1/platform/driver/i2cspm/src/sl_i2cspm.o
 .ARM.attributes
                0x00000544       0x3a ./gecko_sdk_4.4.1/platform/driver/leddrv/src/sl_led.o
 .ARM.attributes
                0x0000057e       0x3a ./gecko_sdk_4.4.1/platform/driver/leddrv/src/sl_simple_led.o
 .ARM.attributes
                0x000005b8       0x3a ./gecko_sdk_4.4.1/platform/emdrv/dmadrv/src/dmadrv.o
 .ARM.attributes
                0x000005f2       0x3a ./gecko_sdk_4.4.1/platform/emlib/src/em_cmu.o
 .ARM.attributes
                0x0000062c       0x3a ./gecko_sdk_4.4.1/platform/emlib/src/em_core.o
 .ARM.attributes
                0x00000666       0x3a ./gecko_sdk_4.4.1/platform/emlib/src/em_emu.o
 .ARM.attributes
                0x000006a0       0x3a ./gecko_sdk_4.4.1/platform/emlib/src/em_eusart.o
 .ARM.attributes
                0x000006da       0x3a ./gecko_sdk_4.4.1/platform/emlib/src/em_gpio.o
 .ARM.attributes
                0x00000714       0x3a ./gecko_sdk_4.4.1/platform/emlib/src/em_i2c.o
 .ARM.attributes
                0x0000074e       0x3a ./gecko_sdk_4.4.1/platform/emlib/src/em_ldma.o
 .ARM.attributes
                0x00000788       0x3a ./gecko_sdk_4.4.1/platform/emlib/src/em_usart.o
 .ARM.attributes
                0x000007c2       0x3a ./gecko_sdk_4.4.1/platform/peripheral/src/peripheral_sysrtc.o
 .ARM.attributes
                0x000007fc       0x3a ./gecko_sdk_4.4.1/platform/service/device_init/src/sl_device_init_dcdc_s2.o
 .ARM.attributes
                0x00000836       0x3a ./gecko_sdk_4.4.1/platform/service/device_init/src/sl_device_init_emu_s2.o
 .ARM.attributes
                0x00000870       0x3a ./gecko_sdk_4.4.1/platform/service/device_init/src/sl_device_init_hfxo_s2.o
 .ARM.attributes
                0x000008aa       0x3a ./gecko_sdk_4.4.1/platform/service/device_init/src/sl_device_init_lfxo_s2.o
 .ARM.attributes
                0x000008e4       0x3a ./gecko_sdk_4.4.1/platform/service/device_init/src/sl_device_init_nvic.o
 .ARM.attributes
                0x0000091e       0x3a ./gecko_sdk_4.4.1/platform/service/iostream/src/sl_iostream.o
 .ARM.attributes
                0x00000958       0x3a ./gecko_sdk_4.4.1/platform/service/iostream/src/sl_iostream_eusart.o
 .ARM.attributes
                0x00000992       0x3a ./gecko_sdk_4.4.1/platform/service/iostream/src/sl_iostream_retarget_stdio.o
 .ARM.attributes
                0x000009cc       0x3a ./gecko_sdk_4.4.1/platform/service/iostream/src/sl_iostream_stdlib_config.o
 .ARM.attributes
                0x00000a06       0x3a ./gecko_sdk_4.4.1/platform/service/iostream/src/sl_iostream_uart.o
 .ARM.attributes
                0x00000a40       0x3a ./gecko_sdk_4.4.1/platform/service/sleeptimer/src/sl_sleeptimer.o
 .ARM.attributes
                0x00000a7a       0x3a ./gecko_sdk_4.4.1/platform/service/sleeptimer/src/sl_sleeptimer_hal_sysrtc.o
 .ARM.attributes
                0x00000ab4       0x3a ./gecko_sdk_4.4.1/platform/service/system/src/sl_system_init.o
 .ARM.attributes
                0x00000aee       0x3a ./gecko_sdk_4.4.1/platform/service/system/src/sl_system_process_action.o
 .ARM.attributes
                0x00000b28       0x3a ./gecko_sdk_4.4.1/platform/service/udelay/src/sl_udelay.o
 .ARM.attributes
                0x00000b62       0x26 ./gecko_sdk_4.4.1/platform/service/udelay/src/sl_udelay_armv6m_gcc.o
 .ARM.attributes
                0x00000b88       0x26 c:/siliconlabs/simplicitystudio/v5/developer/toolchains/gnu_arm/12.2.rel1_2023.7/bin/../lib/gcc/arm-none-eabi/12.2.1/thumb/v8-m.main+fp/hard\libgcc.a(_aeabi_uldivmod.o)
 .ARM.attributes
                0x00000bae       0x38 c:/siliconlabs/simplicitystudio/v5/developer/toolchains/gnu_arm/12.2.rel1_2023.7/bin/../lib/gcc/arm-none-eabi/12.2.1/thumb/v8-m.main+fp/hard\libgcc.a(_udivmoddi4.o)
 .ARM.attributes
                0x00000be6       0x26 c:/siliconlabs/simplicitystudio/v5/developer/toolchains/gnu_arm/12.2.rel1_2023.7/bin/../lib/gcc/arm-none-eabi/12.2.1/thumb/v8-m.main+fp/hard\libgcc.a(_dvmd_tls.o)
 .ARM.attributes
                0x00000c0c       0x38 c:/siliconlabs/simplicitystudio/v5/developer/toolchains/gnu_arm/12.2.rel1_2023.7/bin/../lib/gcc/arm-none-eabi/12.2.1/thumb/v8-m.main+fp/hard\libc_nano.a(libc_a-exit.o)
 .ARM.attributes
                0x00000c44       0x38 c:/siliconlabs/simplicitystudio/v5/developer/toolchains/gnu_arm/12.2.rel1_2023.7/bin/../lib/gcc/arm-none-eabi/12.2.1/thumb/v8-m.main+fp/hard\libc_nano.a(libc_a-findfp.o)
 .ARM.attributes
                0x00000c7c       0x38 c:/siliconlabs/simplicitystudio/v5/developer/toolchains/gnu_arm/12.2.rel1_2023.7/bin/../lib/gcc/arm-none-eabi/12.2.1/thumb/v8-m.main+fp/hard\libc_nano.a(libc_a-fwalk.o)
 .ARM.attributes
                0x00000cb4       0x38 c:/siliconlabs/simplicitystudio/v5/developer/toolchains/gnu_arm/12.2.rel1_2023.7/bin/../lib/gcc/arm-none-eabi/12.2.1/thumb/v8-m.main+fp/hard\libc_nano.a(libc_a-printf.o)
 .ARM.attributes
                0x00000cec       0x38 c:/siliconlabs/simplicitystudio/v5/developer/toolchains/gnu_arm/12.2.rel1_2023.7/bin/../lib/gcc/arm-none-eabi/12.2.1/thumb/v8-m.main+fp/hard\libc_nano.a(libc_a-puts.o)
 .ARM.attributes
                0x00000d24       0x38 c:/siliconlabs/simplicitystudio/v5/developer/toolchains/gnu_arm/12.2.rel1_2023.7/bin/../lib/gcc/arm-none-eabi/12.2.1/thumb/v8-m.main+fp/hard\libc_nano.a(libc_a-setvbuf.o)
 .ARM.attributes
                0x00000d5c       0x38 c:/siliconlabs/simplicitystudio/v5/developer/toolchains/gnu_arm/12.2.rel1_2023.7/bin/../lib/gcc/arm-none-eabi/12.2.1/thumb/v8-m.main+fp/hard\libc_nano.a(libc_a-stdio.o)
 .ARM.attributes
                0x00000d94       0x38 c:/siliconlabs/simplicitystudio/v5/developer/toolchains/gnu_arm/12.2.rel1_2023.7/bin/../lib/gcc/arm-none-eabi/12.2.1/thumb/v8-m.main+fp/hard\libc_nano.a(libc_a-wbuf.o)
 .ARM.attributes
                0x00000dcc       0x38 c:/siliconlabs/simplicitystudio/v5/developer/toolchains/gnu_arm/12.2.rel1_2023.7/bin/../lib/gcc/arm-none-eabi/12.2.1/thumb/v8-m.main+fp/hard\libc_nano.a(libc_a-wsetup.o)
 .ARM.attributes
                0x00000e04       0x38 c:/siliconlabs/simplicitystudio/v5/developer/toolchains/gnu_arm/12.2.rel1_2023.7/bin/../lib/gcc/arm-none-eabi/12.2.1/thumb/v8-m.main+fp/hard\libc_nano.a(libc_a-memset.o)
 .ARM.attributes
                0x00000e3c       0x38 c:/siliconlabs/simplicitystudio/v5/developer/toolchains/gnu_arm/12.2.rel1_2023.7/bin/../lib/gcc/arm-none-eabi/12.2.1/thumb/v8-m.main+fp/hard\libc_nano.a(libc_a-closer.o)
 .ARM.attributes
                0x00000e74       0x38 c:/siliconlabs/simplicitystudio/v5/developer/toolchains/gnu_arm/12.2.rel1_2023.7/bin/../lib/gcc/arm-none-eabi/12.2.1/thumb/v8-m.main+fp/hard\libc_nano.a(libc_a-reent.o)
 .ARM.attributes
                0x00000eac       0x38 c:/siliconlabs/simplicitystudio/v5/developer/toolchains/gnu_arm/12.2.rel1_2023.7/bin/../lib/gcc/arm-none-eabi/12.2.1/thumb/v8-m.main+fp/hard\libc_nano.a(libc_a-impure.o)
 .ARM.attributes
                0x00000ee4       0x38 c:/siliconlabs/simplicitystudio/v5/developer/toolchains/gnu_arm/12.2.rel1_2023.7/bin/../lib/gcc/arm-none-eabi/12.2.1/thumb/v8-m.main+fp/hard\libc_nano.a(libc_a-lseekr.o)
 .ARM.attributes
                0x00000f1c       0x38 c:/siliconlabs/simplicitystudio/v5/developer/toolchains/gnu_arm/12.2.rel1_2023.7/bin/../lib/gcc/arm-none-eabi/12.2.1/thumb/v8-m.main+fp/hard\libc_nano.a(libc_a-readr.o)
 .ARM.attributes
                0x00000f54       0x38 c:/siliconlabs/simplicitystudio/v5/developer/toolchains/gnu_arm/12.2.rel1_2023.7/bin/../lib/gcc/arm-none-eabi/12.2.1/thumb/v8-m.main+fp/hard\libc_nano.a(libc_a-writer.o)
 .ARM.attributes
                0x00000f8c       0x38 c:/siliconlabs/simplicitystudio/v5/developer/toolchains/gnu_arm/12.2.rel1_2023.7/bin/../lib/gcc/arm-none-eabi/12.2.1/thumb/v8-m.main+fp/hard\libc_nano.a(libc_a-init.o)
 .ARM.attributes
                0x00000fc4       0x38 c:/siliconlabs/simplicitystudio/v5/developer/toolchains/gnu_arm/12.2.rel1_2023.7/bin/../lib/gcc/arm-none-eabi/12.2.1/thumb/v8-m.main+fp/hard\libc_nano.a(libc_a-lock.o)
 .ARM.attributes
                0x00000ffc       0x38 c:/siliconlabs/simplicitystudio/v5/developer/toolchains/gnu_arm/12.2.rel1_2023.7/bin/../lib/gcc/arm-none-eabi/12.2.1/thumb/v8-m.main+fp/hard\libc_nano.a(libc_a-memcpy-stub.o)
 .ARM.attributes
                0x00001034       0x38 c:/siliconlabs/simplicitystudio/v5/developer/toolchains/gnu_arm/12.2.rel1_2023.7/bin/../lib/gcc/arm-none-eabi/12.2.1/thumb/v8-m.main+fp/hard\libc_nano.a(libc_a-freer.o)
 .ARM.attributes
                0x0000106c       0x38 c:/siliconlabs/simplicitystudio/v5/developer/toolchains/gnu_arm/12.2.rel1_2023.7/bin/../lib/gcc/arm-none-eabi/12.2.1/thumb/v8-m.main+fp/hard\libc_nano.a(libc_a-malloc.o)
 .ARM.attributes
                0x000010a4       0x38 c:/siliconlabs/simplicitystudio/v5/developer/toolchains/gnu_arm/12.2.rel1_2023.7/bin/../lib/gcc/arm-none-eabi/12.2.1/thumb/v8-m.main+fp/hard\libc_nano.a(libc_a-mallocr.o)
 .ARM.attributes
                0x000010dc       0x38 c:/siliconlabs/simplicitystudio/v5/developer/toolchains/gnu_arm/12.2.rel1_2023.7/bin/../lib/gcc/arm-none-eabi/12.2.1/thumb/v8-m.main+fp/hard\libc_nano.a(libc_a-mlock.o)
 .ARM.attributes
                0x00001114       0x38 c:/siliconlabs/simplicitystudio/v5/developer/toolchains/gnu_arm/12.2.rel1_2023.7/bin/../lib/gcc/arm-none-eabi/12.2.1/thumb/v8-m.main+fp/hard\libc_nano.a(libc_a-nano-vfprintf.o)
 .ARM.attributes
                0x0000114c       0x38 c:/siliconlabs/simplicitystudio/v5/developer/toolchains/gnu_arm/12.2.rel1_2023.7/bin/../lib/gcc/arm-none-eabi/12.2.1/thumb/v8-m.main+fp/hard\libc_nano.a(libc_a-nano-vfprintf_i.o)
 .ARM.attributes
                0x00001184       0x38 c:/siliconlabs/simplicitystudio/v5/developer/toolchains/gnu_arm/12.2.rel1_2023.7/bin/../lib/gcc/arm-none-eabi/12.2.1/thumb/v8-m.main+fp/hard\libc_nano.a(libc_a-fflush.o)
 .ARM.attributes
                0x000011bc       0x38 c:/siliconlabs/simplicitystudio/v5/developer/toolchains/gnu_arm/12.2.rel1_2023.7/bin/../lib/gcc/arm-none-eabi/12.2.1/thumb/v8-m.main+fp/hard\libc_nano.a(libc_a-makebuf.o)
 .ARM.attributes
                0x000011f4       0x38 c:/siliconlabs/simplicitystudio/v5/developer/toolchains/gnu_arm/12.2.rel1_2023.7/bin/../lib/gcc/arm-none-eabi/12.2.1/thumb/v8-m.main+fp/hard\libc_nano.a(libc_a-fstatr.o)
 .ARM.attributes
                0x0000122c       0x38 c:/siliconlabs/simplicitystudio/v5/developer/toolchains/gnu_arm/12.2.rel1_2023.7/bin/../lib/gcc/arm-none-eabi/12.2.1/thumb/v8-m.main+fp/hard\libc_nano.a(libc_a-isattyr.o)
 .ARM.attributes
                0x00001264       0x38 c:/siliconlabs/simplicitystudio/v5/developer/toolchains/gnu_arm/12.2.rel1_2023.7/bin/../lib/gcc/arm-none-eabi/12.2.1/thumb/v8-m.main+fp/hard\libc_nano.a(libc_a-sbrkr.o)
 .ARM.attributes
                0x0000129c       0x38 c:/siliconlabs/simplicitystudio/v5/developer/toolchains/gnu_arm/12.2.rel1_2023.7/bin/../lib/gcc/arm-none-eabi/12.2.1/thumb/v8-m.main+fp/hard\libc_nano.a(libc_a-memchr-stub.o)
 .ARM.attributes
                0x000012d4       0x38 c:/siliconlabs/simplicitystudio/v5/developer/toolchains/gnu_arm/12.2.rel1_2023.7/bin/../lib/gcc/arm-none-eabi/12.2.1/thumb/v8-m.main+fp/hard/crtend.o
 .ARM.attributes
                0x0000130c       0x26 c:/siliconlabs/simplicitystudio/v5/developer/toolchains/gnu_arm/12.2.rel1_2023.7/bin/../lib/gcc/arm-none-eabi/12.2.1/thumb/v8-m.main+fp/hard/crtn.o

.comment        0x00000000       0x45
 .comment       0x00000000       0x45 ./app.o
                                 0x46 (size before relaxing)
 .comment       0x00000045       0x46 ./as.o
 .comment       0x00000045       0x46 ./main.o
 .comment       0x00000045       0x46 ./mpl.o
 .comment       0x00000045       0x46 ./si.o
 .comment       0x00000045       0x46 ./autogen/sl_board_default_init.o
 .comment       0x00000045       0x46 ./autogen/sl_device_init_clocks.o
 .comment       0x00000045       0x46 ./autogen/sl_event_handler.o
 .comment       0x00000045       0x46 ./autogen/sl_i2cspm_init.o
 .comment       0x00000045       0x46 ./autogen/sl_iostream_init_eusart_instances.o
 .comment       0x00000045       0x46 ./autogen/sl_simple_led_instances.o
 .comment       0x00000045       0x46 ./gecko_sdk_4.4.1/hardware/board/src/sl_board_control_gpio.o
 .comment       0x00000045       0x46 ./gecko_sdk_4.4.1/hardware/board/src/sl_board_init.o
 .comment       0x00000045       0x46 ./gecko_sdk_4.4.1/hardware/driver/configuration_over_swo/src/sl_cos.o
 .comment       0x00000045       0x46 ./gecko_sdk_4.4.1/hardware/driver/mx25_flash_shutdown/src/sl_mx25_flash_shutdown_usart/sl_mx25_flash_shutdown.o
 .comment       0x00000045       0x46 ./gecko_sdk_4.4.1/platform/Device/SiliconLabs/EFR32MG24/Source/startup_efr32mg24.o
 .comment       0x00000045       0x46 ./gecko_sdk_4.4.1/platform/Device/SiliconLabs/EFR32MG24/Source/system_efr32mg24.o
 .comment       0x00000045       0x46 ./gecko_sdk_4.4.1/platform/common/src/sl_assert.o
 .comment       0x00000045       0x46 ./gecko_sdk_4.4.1/platform/common/toolchain/src/sl_memory.o
 .comment       0x00000045       0x46 ./gecko_sdk_4.4.1/platform/driver/debug/src/sl_debug_swo.o
 .comment       0x00000045       0x46 ./gecko_sdk_4.4.1/platform/driver/i2cspm/src/sl_i2cspm.o
 .comment       0x00000045       0x46 ./gecko_sdk_4.4.1/platform/driver/leddrv/src/sl_led.o
 .comment       0x00000045       0x46 ./gecko_sdk_4.4.1/platform/driver/leddrv/src/sl_simple_led.o
 .comment       0x00000045       0x46 ./gecko_sdk_4.4.1/platform/emdrv/dmadrv/src/dmadrv.o
 .comment       0x00000045       0x46 ./gecko_sdk_4.4.1/platform/emlib/src/em_cmu.o
 .comment       0x00000045       0x46 ./gecko_sdk_4.4.1/platform/emlib/src/em_core.o
 .comment       0x00000045       0x46 ./gecko_sdk_4.4.1/platform/emlib/src/em_emu.o
 .comment       0x00000045       0x46 ./gecko_sdk_4.4.1/platform/emlib/src/em_eusart.o
 .comment       0x00000045       0x46 ./gecko_sdk_4.4.1/platform/emlib/src/em_gpio.o
 .comment       0x00000045       0x46 ./gecko_sdk_4.4.1/platform/emlib/src/em_i2c.o
 .comment       0x00000045       0x46 ./gecko_sdk_4.4.1/platform/emlib/src/em_ldma.o
 .comment       0x00000045       0x46 ./gecko_sdk_4.4.1/platform/emlib/src/em_usart.o
 .comment       0x00000045       0x46 ./gecko_sdk_4.4.1/platform/peripheral/src/peripheral_sysrtc.o
 .comment       0x00000045       0x46 ./gecko_sdk_4.4.1/platform/service/device_init/src/sl_device_init_dcdc_s2.o
 .comment       0x00000045       0x46 ./gecko_sdk_4.4.1/platform/service/device_init/src/sl_device_init_emu_s2.o
 .comment       0x00000045       0x46 ./gecko_sdk_4.4.1/platform/service/device_init/src/sl_device_init_hfxo_s2.o
 .comment       0x00000045       0x46 ./gecko_sdk_4.4.1/platform/service/device_init/src/sl_device_init_lfxo_s2.o
 .comment       0x00000045       0x46 ./gecko_sdk_4.4.1/platform/service/device_init/src/sl_device_init_nvic.o
 .comment       0x00000045       0x46 ./gecko_sdk_4.4.1/platform/service/iostream/src/sl_iostream.o
 .comment       0x00000045       0x46 ./gecko_sdk_4.4.1/platform/service/iostream/src/sl_iostream_eusart.o
 .comment       0x00000045       0x46 ./gecko_sdk_4.4.1/platform/service/iostream/src/sl_iostream_retarget_stdio.o
 .comment       0x00000045       0x46 ./gecko_sdk_4.4.1/platform/service/iostream/src/sl_iostream_stdlib_config.o
 .comment       0x00000045       0x46 ./gecko_sdk_4.4.1/platform/service/iostream/src/sl_iostream_uart.o
 .comment       0x00000045       0x46 ./gecko_sdk_4.4.1/platform/service/sleeptimer/src/sl_sleeptimer.o
 .comment       0x00000045       0x46 ./gecko_sdk_4.4.1/platform/service/sleeptimer/src/sl_sleeptimer_hal_sysrtc.o
 .comment       0x00000045       0x46 ./gecko_sdk_4.4.1/platform/service/system/src/sl_system_init.o
 .comment       0x00000045       0x46 ./gecko_sdk_4.4.1/platform/service/system/src/sl_system_process_action.o
 .comment       0x00000045       0x46 ./gecko_sdk_4.4.1/platform/service/udelay/src/sl_udelay.o

.debug_line_str
                0x00000000      0x1c0
 .debug_line_str
                0x00000000       0xe7 c:/siliconlabs/simplicitystudio/v5/developer/toolchains/gnu_arm/12.2.rel1_2023.7/bin/../lib/gcc/arm-none-eabi/12.2.1/thumb/v8-m.main+fp/hard/crt0.o
 .debug_line_str
                0x000000e7       0xcd c:/siliconlabs/simplicitystudio/v5/developer/toolchains/gnu_arm/12.2.rel1_2023.7/bin/../lib/gcc/arm-none-eabi/12.2.1/thumb/v8-m.main+fp/hard\libgcc.a(_aeabi_uldivmod.o)
 .debug_line_str
                0x000001b4        0xc c:/siliconlabs/simplicitystudio/v5/developer/toolchains/gnu_arm/12.2.rel1_2023.7/bin/../lib/gcc/arm-none-eabi/12.2.1/thumb/v8-m.main+fp/hard\libgcc.a(_dvmd_tls.o)
                                 0xd1 (size before relaxing)

.debug_info     0x00000000    0x42bd6
 .debug_info    0x00000000      0x20c ./app.o
 .debug_info    0x0000020c      0x89a ./as.o
 .debug_info    0x00000aa6       0xa1 ./main.o
 .debug_info    0x00000b47      0x899 ./mpl.o
 .debug_info    0x000013e0     0x112a ./si.o
 .debug_info    0x0000250a       0xc5 ./autogen/sl_board_default_init.o
 .debug_info    0x000025cf     0x1415 ./autogen/sl_device_init_clocks.o
 .debug_info    0x000039e4      0x2f3 ./autogen/sl_event_handler.o
 .debug_info    0x00003cd7      0x8a8 ./autogen/sl_i2cspm_init.o
 .debug_info    0x0000457f     0x1a92 ./autogen/sl_iostream_init_eusart_instances.o
 .debug_info    0x00006011      0x338 ./autogen/sl_simple_led_instances.o
 .debug_info    0x00006349      0x5c4 ./gecko_sdk_4.4.1/hardware/board/src/sl_board_control_gpio.o
 .debug_info    0x0000690d      0x37d ./gecko_sdk_4.4.1/hardware/board/src/sl_board_init.o
 .debug_info    0x00006c8a      0x4ce ./gecko_sdk_4.4.1/hardware/driver/configuration_over_swo/src/sl_cos.o
 .debug_info    0x00007158     0x2538 ./gecko_sdk_4.4.1/hardware/driver/mx25_flash_shutdown/src/sl_mx25_flash_shutdown_usart/sl_mx25_flash_shutdown.o
 .debug_info    0x00009690      0x3a9 ./gecko_sdk_4.4.1/platform/Device/SiliconLabs/EFR32MG24/Source/startup_efr32mg24.o
 .debug_info    0x00009a39     0x2478 ./gecko_sdk_4.4.1/platform/Device/SiliconLabs/EFR32MG24/Source/system_efr32mg24.o
 .debug_info    0x0000beb1       0x86 ./gecko_sdk_4.4.1/platform/common/src/sl_assert.o
 .debug_info    0x0000bf37      0x205 ./gecko_sdk_4.4.1/platform/common/toolchain/src/sl_memory.o
 .debug_info    0x0000c13c     0x3328 ./gecko_sdk_4.4.1/platform/driver/debug/src/sl_debug_swo.o
 .debug_info    0x0000f464     0x224b ./gecko_sdk_4.4.1/platform/driver/i2cspm/src/sl_i2cspm.o
 .debug_info    0x000116af      0x25e ./gecko_sdk_4.4.1/platform/driver/leddrv/src/sl_led.o
 .debug_info    0x0001190d     0x1cee ./gecko_sdk_4.4.1/platform/driver/leddrv/src/sl_simple_led.o
 .debug_info    0x000135fb     0x1eb9 ./gecko_sdk_4.4.1/platform/emdrv/dmadrv/src/dmadrv.o
 .debug_info    0x000154b4     0xa8ab ./gecko_sdk_4.4.1/platform/emlib/src/em_cmu.o
 .debug_info    0x0001fd5f     0x1416 ./gecko_sdk_4.4.1/platform/emlib/src/em_core.o
 .debug_info    0x00021175     0x3ae7 ./gecko_sdk_4.4.1/platform/emlib/src/em_emu.o
 .debug_info    0x00024c5c     0x5a8e ./gecko_sdk_4.4.1/platform/emlib/src/em_eusart.o
 .debug_info    0x0002a6ea     0x2775 ./gecko_sdk_4.4.1/platform/emlib/src/em_gpio.o
 .debug_info    0x0002ce5f     0x13fe ./gecko_sdk_4.4.1/platform/emlib/src/em_i2c.o
 .debug_info    0x0002e25d     0x1fde ./gecko_sdk_4.4.1/platform/emlib/src/em_ldma.o
 .debug_info    0x0003023b     0x4a3f ./gecko_sdk_4.4.1/platform/emlib/src/em_usart.o
 .debug_info    0x00034c7a      0xde0 ./gecko_sdk_4.4.1/platform/peripheral/src/peripheral_sysrtc.o
 .debug_info    0x00035a5a      0x370 ./gecko_sdk_4.4.1/platform/service/device_init/src/sl_device_init_dcdc_s2.o
 .debug_info    0x00035dca      0xb44 ./gecko_sdk_4.4.1/platform/service/device_init/src/sl_device_init_emu_s2.o
 .debug_info    0x0003690e      0x8c8 ./gecko_sdk_4.4.1/platform/service/device_init/src/sl_device_init_hfxo_s2.o
 .debug_info    0x000371d6      0x29e ./gecko_sdk_4.4.1/platform/service/device_init/src/sl_device_init_lfxo_s2.o
 .debug_info    0x00037474      0x847 ./gecko_sdk_4.4.1/platform/service/device_init/src/sl_device_init_nvic.o
 .debug_info    0x00037cbb      0x64c ./gecko_sdk_4.4.1/platform/service/iostream/src/sl_iostream.o
 .debug_info    0x00038307     0x4776 ./gecko_sdk_4.4.1/platform/service/iostream/src/sl_iostream_eusart.o
 .debug_info    0x0003ca7d      0x68b ./gecko_sdk_4.4.1/platform/service/iostream/src/sl_iostream_retarget_stdio.o
 .debug_info    0x0003d108      0x854 ./gecko_sdk_4.4.1/platform/service/iostream/src/sl_iostream_stdlib_config.o
 .debug_info    0x0003d95c     0x1e2e ./gecko_sdk_4.4.1/platform/service/iostream/src/sl_iostream_uart.o
 .debug_info    0x0003f78a     0x1a5f ./gecko_sdk_4.4.1/platform/service/sleeptimer/src/sl_sleeptimer.o
 .debug_info    0x000411e9     0x16e7 ./gecko_sdk_4.4.1/platform/service/sleeptimer/src/sl_sleeptimer_hal_sysrtc.o
 .debug_info    0x000428d0       0xa7 ./gecko_sdk_4.4.1/platform/service/system/src/sl_system_init.o
 .debug_info    0x00042977       0x93 ./gecko_sdk_4.4.1/platform/service/system/src/sl_system_process_action.o
 .debug_info    0x00042a0a      0x1a6 ./gecko_sdk_4.4.1/platform/service/udelay/src/sl_udelay.o
 .debug_info    0x00042bb0       0x26 ./gecko_sdk_4.4.1/platform/service/udelay/src/sl_udelay_armv6m_gcc.o

.debug_abbrev   0x00000000     0x6fbd
 .debug_abbrev  0x00000000       0xe4 ./app.o
 .debug_abbrev  0x000000e4      0x259 ./as.o
 .debug_abbrev  0x0000033d       0x5d ./main.o
 .debug_abbrev  0x0000039a      0x257 ./mpl.o
 .debug_abbrev  0x000005f1      0x423 ./si.o
 .debug_abbrev  0x00000a14       0x87 ./autogen/sl_board_default_init.o
 .debug_abbrev  0x00000a9b       0xde ./autogen/sl_device_init_clocks.o
 .debug_abbrev  0x00000b79      0x112 ./autogen/sl_event_handler.o
 .debug_abbrev  0x00000c8b      0x172 ./autogen/sl_i2cspm_init.o
 .debug_abbrev  0x00000dfd      0x281 ./autogen/sl_iostream_init_eusart_instances.o
 .debug_abbrev  0x0000107e      0x15d ./autogen/sl_simple_led_instances.o
 .debug_abbrev  0x000011db      0x195 ./gecko_sdk_4.4.1/hardware/board/src/sl_board_control_gpio.o
 .debug_abbrev  0x00001370      0x142 ./gecko_sdk_4.4.1/hardware/board/src/sl_board_init.o
 .debug_abbrev  0x000014b2      0x20f ./gecko_sdk_4.4.1/hardware/driver/configuration_over_swo/src/sl_cos.o
 .debug_abbrev  0x000016c1      0x238 ./gecko_sdk_4.4.1/hardware/driver/mx25_flash_shutdown/src/sl_mx25_flash_shutdown_usart/sl_mx25_flash_shutdown.o
 .debug_abbrev  0x000018f9      0x22e ./gecko_sdk_4.4.1/platform/Device/SiliconLabs/EFR32MG24/Source/startup_efr32mg24.o
 .debug_abbrev  0x00001b27      0x34d ./gecko_sdk_4.4.1/platform/Device/SiliconLabs/EFR32MG24/Source/system_efr32mg24.o
 .debug_abbrev  0x00001e74       0x6c ./gecko_sdk_4.4.1/platform/common/src/sl_assert.o
 .debug_abbrev  0x00001ee0      0x11e ./gecko_sdk_4.4.1/platform/common/toolchain/src/sl_memory.o
 .debug_abbrev  0x00001ffe      0x2ff ./gecko_sdk_4.4.1/platform/driver/debug/src/sl_debug_swo.o
 .debug_abbrev  0x000022fd      0x2ab ./gecko_sdk_4.4.1/platform/driver/i2cspm/src/sl_i2cspm.o
 .debug_abbrev  0x000025a8       0xfd ./gecko_sdk_4.4.1/platform/driver/leddrv/src/sl_led.o
 .debug_abbrev  0x000026a5      0x2e5 ./gecko_sdk_4.4.1/platform/driver/leddrv/src/sl_simple_led.o
 .debug_abbrev  0x0000298a      0x3d4 ./gecko_sdk_4.4.1/platform/emdrv/dmadrv/src/dmadrv.o
 .debug_abbrev  0x00002d5e      0x5b2 ./gecko_sdk_4.4.1/platform/emlib/src/em_cmu.o
 .debug_abbrev  0x00003310      0x32f ./gecko_sdk_4.4.1/platform/emlib/src/em_core.o
 .debug_abbrev  0x0000363f      0x4c1 ./gecko_sdk_4.4.1/platform/emlib/src/em_emu.o
 .debug_abbrev  0x00003b00      0x437 ./gecko_sdk_4.4.1/platform/emlib/src/em_eusart.o
 .debug_abbrev  0x00003f37      0x32f ./gecko_sdk_4.4.1/platform/emlib/src/em_gpio.o
 .debug_abbrev  0x00004266      0x427 ./gecko_sdk_4.4.1/platform/emlib/src/em_i2c.o
 .debug_abbrev  0x0000468d      0x3f2 ./gecko_sdk_4.4.1/platform/emlib/src/em_ldma.o
 .debug_abbrev  0x00004a7f      0x345 ./gecko_sdk_4.4.1/platform/emlib/src/em_usart.o
 .debug_abbrev  0x00004dc4      0x282 ./gecko_sdk_4.4.1/platform/peripheral/src/peripheral_sysrtc.o
 .debug_abbrev  0x00005046      0x11a ./gecko_sdk_4.4.1/platform/service/device_init/src/sl_device_init_dcdc_s2.o
 .debug_abbrev  0x00005160      0x149 ./gecko_sdk_4.4.1/platform/service/device_init/src/sl_device_init_emu_s2.o
 .debug_abbrev  0x000052a9      0x196 ./gecko_sdk_4.4.1/platform/service/device_init/src/sl_device_init_hfxo_s2.o
 .debug_abbrev  0x0000543f      0x105 ./gecko_sdk_4.4.1/platform/service/device_init/src/sl_device_init_lfxo_s2.o
 .debug_abbrev  0x00005544      0x14b ./gecko_sdk_4.4.1/platform/service/device_init/src/sl_device_init_nvic.o
 .debug_abbrev  0x0000568f      0x2a5 ./gecko_sdk_4.4.1/platform/service/iostream/src/sl_iostream.o
 .debug_abbrev  0x00005934      0x3ae ./gecko_sdk_4.4.1/platform/service/iostream/src/sl_iostream_eusart.o
 .debug_abbrev  0x00005ce2      0x1f9 ./gecko_sdk_4.4.1/platform/service/iostream/src/sl_iostream_retarget_stdio.o
 .debug_abbrev  0x00005edb      0x188 ./gecko_sdk_4.4.1/platform/service/iostream/src/sl_iostream_stdlib_config.o
 .debug_abbrev  0x00006063      0x48e ./gecko_sdk_4.4.1/platform/service/iostream/src/sl_iostream_uart.o
 .debug_abbrev  0x000064f1      0x495 ./gecko_sdk_4.4.1/platform/service/sleeptimer/src/sl_sleeptimer.o
 .debug_abbrev  0x00006986      0x44d ./gecko_sdk_4.4.1/platform/service/sleeptimer/src/sl_sleeptimer_hal_sysrtc.o
 .debug_abbrev  0x00006dd3       0x5c ./gecko_sdk_4.4.1/platform/service/system/src/sl_system_init.o
 .debug_abbrev  0x00006e2f       0x5c ./gecko_sdk_4.4.1/platform/service/system/src/sl_system_process_action.o
 .debug_abbrev  0x00006e8b      0x11e ./gecko_sdk_4.4.1/platform/service/udelay/src/sl_udelay.o
 .debug_abbrev  0x00006fa9       0x14 ./gecko_sdk_4.4.1/platform/service/udelay/src/sl_udelay_armv6m_gcc.o

.debug_loc      0x00000000    0x10b89
 .debug_loc     0x00000000       0x2c ./app.o
 .debug_loc     0x0000002c       0xfa ./as.o
 .debug_loc     0x00000126       0x20 ./main.o
 .debug_loc     0x00000146       0xfa ./mpl.o
 .debug_loc     0x00000240      0x633 ./si.o
 .debug_loc     0x00000873       0x20 ./autogen/sl_device_init_clocks.o
 .debug_loc     0x00000893       0x84 ./autogen/sl_event_handler.o
 .debug_loc     0x00000917       0x2c ./autogen/sl_i2cspm_init.o
 .debug_loc     0x00000943       0xa0 ./autogen/sl_iostream_init_eusart_instances.o
 .debug_loc     0x000009e3       0x2c ./autogen/sl_simple_led_instances.o
 .debug_loc     0x00000a0f      0x2ee ./gecko_sdk_4.4.1/hardware/board/src/sl_board_control_gpio.o
 .debug_loc     0x00000cfd       0x2c ./gecko_sdk_4.4.1/hardware/board/src/sl_board_init.o
 .debug_loc     0x00000d29      0x31e ./gecko_sdk_4.4.1/hardware/driver/configuration_over_swo/src/sl_cos.o
 .debug_loc     0x00001047       0x90 ./gecko_sdk_4.4.1/hardware/driver/mx25_flash_shutdown/src/sl_mx25_flash_shutdown_usart/sl_mx25_flash_shutdown.o
 .debug_loc     0x000010d7       0x8e ./gecko_sdk_4.4.1/platform/Device/SiliconLabs/EFR32MG24/Source/startup_efr32mg24.o
 .debug_loc     0x00001165      0x2c0 ./gecko_sdk_4.4.1/platform/Device/SiliconLabs/EFR32MG24/Source/system_efr32mg24.o
 .debug_loc     0x00001425       0x2a ./gecko_sdk_4.4.1/platform/common/src/sl_assert.o
 .debug_loc     0x0000144f       0xa9 ./gecko_sdk_4.4.1/platform/common/toolchain/src/sl_memory.o
 .debug_loc     0x000014f8      0x294 ./gecko_sdk_4.4.1/platform/driver/debug/src/sl_debug_swo.o
 .debug_loc     0x0000178c      0x23d ./gecko_sdk_4.4.1/platform/driver/i2cspm/src/sl_i2cspm.o
 .debug_loc     0x000019c9       0xb9 ./gecko_sdk_4.4.1/platform/driver/leddrv/src/sl_led.o
 .debug_loc     0x00001a82      0x36c ./gecko_sdk_4.4.1/platform/driver/leddrv/src/sl_simple_led.o
 .debug_loc     0x00001dee     0x1105 ./gecko_sdk_4.4.1/platform/emdrv/dmadrv/src/dmadrv.o
 .debug_loc     0x00002ef3     0x4b25 ./gecko_sdk_4.4.1/platform/emlib/src/em_cmu.o
 .debug_loc     0x00007a18      0x9a9 ./gecko_sdk_4.4.1/platform/emlib/src/em_core.o
 .debug_loc     0x000083c1      0x910 ./gecko_sdk_4.4.1/platform/emlib/src/em_emu.o
 .debug_loc     0x00008cd1     0x1348 ./gecko_sdk_4.4.1/platform/emlib/src/em_eusart.o
 .debug_loc     0x0000a019      0x93d ./gecko_sdk_4.4.1/platform/emlib/src/em_gpio.o
 .debug_loc     0x0000a956      0xf6e ./gecko_sdk_4.4.1/platform/emlib/src/em_i2c.o
 .debug_loc     0x0000b8c4      0x5db ./gecko_sdk_4.4.1/platform/emlib/src/em_ldma.o
 .debug_loc     0x0000be9f      0xa6f ./gecko_sdk_4.4.1/platform/emlib/src/em_usart.o
 .debug_loc     0x0000c90e      0x582 ./gecko_sdk_4.4.1/platform/peripheral/src/peripheral_sysrtc.o
 .debug_loc     0x0000ce90       0x2c ./gecko_sdk_4.4.1/platform/service/device_init/src/sl_device_init_dcdc_s2.o
 .debug_loc     0x0000cebc       0x2c ./gecko_sdk_4.4.1/platform/service/device_init/src/sl_device_init_emu_s2.o
 .debug_loc     0x0000cee8       0xbd ./gecko_sdk_4.4.1/platform/service/device_init/src/sl_device_init_hfxo_s2.o
 .debug_loc     0x0000cfa5       0x38 ./gecko_sdk_4.4.1/platform/service/device_init/src/sl_device_init_lfxo_s2.o
 .debug_loc     0x0000cfdd       0x79 ./gecko_sdk_4.4.1/platform/service/device_init/src/sl_device_init_nvic.o
 .debug_loc     0x0000d056      0x5fe ./gecko_sdk_4.4.1/platform/service/iostream/src/sl_iostream.o
 .debug_loc     0x0000d654      0x5ca ./gecko_sdk_4.4.1/platform/service/iostream/src/sl_iostream_eusart.o
 .debug_loc     0x0000dc1e      0x217 ./gecko_sdk_4.4.1/platform/service/iostream/src/sl_iostream_retarget_stdio.o
 .debug_loc     0x0000de35      0xd22 ./gecko_sdk_4.4.1/platform/service/iostream/src/sl_iostream_uart.o
 .debug_loc     0x0000eb57     0x1982 ./gecko_sdk_4.4.1/platform/service/sleeptimer/src/sl_sleeptimer.o
 .debug_loc     0x000104d9      0x4c3 ./gecko_sdk_4.4.1/platform/service/sleeptimer/src/sl_sleeptimer_hal_sysrtc.o
 .debug_loc     0x0001099c       0x2c ./gecko_sdk_4.4.1/platform/service/system/src/sl_system_init.o
 .debug_loc     0x000109c8       0x2c ./gecko_sdk_4.4.1/platform/service/system/src/sl_system_process_action.o
 .debug_loc     0x000109f4      0x195 ./gecko_sdk_4.4.1/platform/service/udelay/src/sl_udelay.o

.debug_aranges  0x00000000     0x1188
 .debug_aranges
                0x00000000       0x28 ./app.o
 .debug_aranges
                0x00000028       0x28 ./as.o
 .debug_aranges
                0x00000050       0x20 ./main.o
 .debug_aranges
                0x00000070       0x28 ./mpl.o
 .debug_aranges
                0x00000098       0x58 ./si.o
 .debug_aranges
                0x000000f0       0x20 ./autogen/sl_board_default_init.o
 .debug_aranges
                0x00000110       0x20 ./autogen/sl_device_init_clocks.o
 .debug_aranges
                0x00000130       0x68 ./autogen/sl_event_handler.o
 .debug_aranges
                0x00000198       0x20 ./autogen/sl_i2cspm_init.o
 .debug_aranges
                0x000001b8       0x38 ./autogen/sl_iostream_init_eusart_instances.o
 .debug_aranges
                0x000001f0       0x20 ./autogen/sl_simple_led_instances.o
 .debug_aranges
                0x00000210       0x70 ./gecko_sdk_4.4.1/hardware/board/src/sl_board_control_gpio.o
 .debug_aranges
                0x00000280       0x28 ./gecko_sdk_4.4.1/hardware/board/src/sl_board_init.o
 .debug_aranges
                0x000002a8       0x38 ./gecko_sdk_4.4.1/hardware/driver/configuration_over_swo/src/sl_cos.o
 .debug_aranges
                0x000002e0       0x30 ./gecko_sdk_4.4.1/hardware/driver/mx25_flash_shutdown/src/sl_mx25_flash_shutdown_usart/sl_mx25_flash_shutdown.o
 .debug_aranges
                0x00000310       0x30 ./gecko_sdk_4.4.1/platform/Device/SiliconLabs/EFR32MG24/Source/startup_efr32mg24.o
 .debug_aranges
                0x00000340       0x98 ./gecko_sdk_4.4.1/platform/Device/SiliconLabs/EFR32MG24/Source/system_efr32mg24.o
 .debug_aranges
                0x000003d8       0x20 ./gecko_sdk_4.4.1/platform/common/src/sl_assert.o
 .debug_aranges
                0x000003f8       0x30 ./gecko_sdk_4.4.1/platform/common/toolchain/src/sl_memory.o
 .debug_aranges
                0x00000428       0x48 ./gecko_sdk_4.4.1/platform/driver/debug/src/sl_debug_swo.o
 .debug_aranges
                0x00000470       0x28 ./gecko_sdk_4.4.1/platform/driver/i2cspm/src/sl_i2cspm.o
 .debug_aranges
                0x00000498       0x40 ./gecko_sdk_4.4.1/platform/driver/leddrv/src/sl_led.o
 .debug_aranges
                0x000004d8       0x50 ./gecko_sdk_4.4.1/platform/driver/leddrv/src/sl_simple_led.o
 .debug_aranges
                0x00000528       0xa8 ./gecko_sdk_4.4.1/platform/emdrv/dmadrv/src/dmadrv.o
 .debug_aranges
                0x000005d0      0x200 ./gecko_sdk_4.4.1/platform/emlib/src/em_cmu.o
 .debug_aranges
                0x000007d0       0xe8 ./gecko_sdk_4.4.1/platform/emlib/src/em_core.o
 .debug_aranges
                0x000008b8      0x138 ./gecko_sdk_4.4.1/platform/emlib/src/em_emu.o
 .debug_aranges
                0x000009f0       0xc8 ./gecko_sdk_4.4.1/platform/emlib/src/em_eusart.o
 .debug_aranges
                0x00000ab8       0x68 ./gecko_sdk_4.4.1/platform/emlib/src/em_gpio.o
 .debug_aranges
                0x00000b20       0x50 ./gecko_sdk_4.4.1/platform/emlib/src/em_i2c.o
 .debug_aranges
                0x00000b70       0x50 ./gecko_sdk_4.4.1/platform/emlib/src/em_ldma.o
 .debug_aranges
                0x00000bc0       0xb8 ./gecko_sdk_4.4.1/platform/emlib/src/em_usart.o
 .debug_aranges
                0x00000c78       0xd0 ./gecko_sdk_4.4.1/platform/peripheral/src/peripheral_sysrtc.o
 .debug_aranges
                0x00000d48       0x20 ./gecko_sdk_4.4.1/platform/service/device_init/src/sl_device_init_dcdc_s2.o
 .debug_aranges
                0x00000d68       0x20 ./gecko_sdk_4.4.1/platform/service/device_init/src/sl_device_init_emu_s2.o
 .debug_aranges
                0x00000d88       0x20 ./gecko_sdk_4.4.1/platform/service/device_init/src/sl_device_init_hfxo_s2.o
 .debug_aranges
                0x00000da8       0x20 ./gecko_sdk_4.4.1/platform/service/device_init/src/sl_device_init_lfxo_s2.o
 .debug_aranges
                0x00000dc8       0x20 ./gecko_sdk_4.4.1/platform/service/device_init/src/sl_device_init_nvic.o
 .debug_aranges
                0x00000de8       0x58 ./gecko_sdk_4.4.1/platform/service/iostream/src/sl_iostream.o
 .debug_aranges
                0x00000e40       0x40 ./gecko_sdk_4.4.1/platform/service/iostream/src/sl_iostream_eusart.o
 .debug_aranges
                0x00000e80       0x60 ./gecko_sdk_4.4.1/platform/service/iostream/src/sl_iostream_retarget_stdio.o
 .debug_aranges
                0x00000ee0       0x20 ./gecko_sdk_4.4.1/platform/service/iostream/src/sl_iostream_stdlib_config.o
 .debug_aranges
                0x00000f00       0x58 ./gecko_sdk_4.4.1/platform/service/iostream/src/sl_iostream_uart.o
 .debug_aranges
                0x00000f58      0x120 ./gecko_sdk_4.4.1/platform/service/sleeptimer/src/sl_sleeptimer.o
 .debug_aranges
                0x00001078       0x90 ./gecko_sdk_4.4.1/platform/service/sleeptimer/src/sl_sleeptimer_hal_sysrtc.o
 .debug_aranges
                0x00001108       0x20 ./gecko_sdk_4.4.1/platform/service/system/src/sl_system_init.o
 .debug_aranges
                0x00001128       0x20 ./gecko_sdk_4.4.1/platform/service/system/src/sl_system_process_action.o
 .debug_aranges
                0x00001148       0x20 ./gecko_sdk_4.4.1/platform/service/udelay/src/sl_udelay.o
 .debug_aranges
                0x00001168       0x20 ./gecko_sdk_4.4.1/platform/service/udelay/src/sl_udelay_armv6m_gcc.o

.debug_ranges   0x00000000     0x1988
 .debug_ranges  0x00000000       0x18 ./app.o
 .debug_ranges  0x00000018       0x18 ./as.o
 .debug_ranges  0x00000030       0x10 ./main.o
 .debug_ranges  0x00000040       0x18 ./mpl.o
 .debug_ranges  0x00000058       0xa8 ./si.o
 .debug_ranges  0x00000100       0x10 ./autogen/sl_board_default_init.o
 .debug_ranges  0x00000110       0x10 ./autogen/sl_device_init_clocks.o
 .debug_ranges  0x00000120       0x70 ./autogen/sl_event_handler.o
 .debug_ranges  0x00000190       0x10 ./autogen/sl_i2cspm_init.o
 .debug_ranges  0x000001a0       0x28 ./autogen/sl_iostream_init_eusart_instances.o
 .debug_ranges  0x000001c8       0x10 ./autogen/sl_simple_led_instances.o
 .debug_ranges  0x000001d8       0x60 ./gecko_sdk_4.4.1/hardware/board/src/sl_board_control_gpio.o
 .debug_ranges  0x00000238       0x18 ./gecko_sdk_4.4.1/hardware/board/src/sl_board_init.o
 .debug_ranges  0x00000250       0x40 ./gecko_sdk_4.4.1/hardware/driver/configuration_over_swo/src/sl_cos.o
 .debug_ranges  0x00000290       0x20 ./gecko_sdk_4.4.1/hardware/driver/mx25_flash_shutdown/src/sl_mx25_flash_shutdown_usart/sl_mx25_flash_shutdown.o
 .debug_ranges  0x000002b0       0x88 ./gecko_sdk_4.4.1/platform/Device/SiliconLabs/EFR32MG24/Source/startup_efr32mg24.o
 .debug_ranges  0x00000338       0xa0 ./gecko_sdk_4.4.1/platform/Device/SiliconLabs/EFR32MG24/Source/system_efr32mg24.o
 .debug_ranges  0x000003d8       0x10 ./gecko_sdk_4.4.1/platform/common/src/sl_assert.o
 .debug_ranges  0x000003e8       0x20 ./gecko_sdk_4.4.1/platform/common/toolchain/src/sl_memory.o
 .debug_ranges  0x00000408       0x68 ./gecko_sdk_4.4.1/platform/driver/debug/src/sl_debug_swo.o
 .debug_ranges  0x00000470       0x48 ./gecko_sdk_4.4.1/platform/driver/i2cspm/src/sl_i2cspm.o
 .debug_ranges  0x000004b8       0x30 ./gecko_sdk_4.4.1/platform/driver/leddrv/src/sl_led.o
 .debug_ranges  0x000004e8       0x40 ./gecko_sdk_4.4.1/platform/driver/leddrv/src/sl_simple_led.o
 .debug_ranges  0x00000528       0xb0 ./gecko_sdk_4.4.1/platform/emdrv/dmadrv/src/dmadrv.o
 .debug_ranges  0x000005d8      0x400 ./gecko_sdk_4.4.1/platform/emlib/src/em_cmu.o
 .debug_ranges  0x000009d8      0x1a0 ./gecko_sdk_4.4.1/platform/emlib/src/em_core.o
 .debug_ranges  0x00000b78      0x2b8 ./gecko_sdk_4.4.1/platform/emlib/src/em_emu.o
 .debug_ranges  0x00000e30      0x1c0 ./gecko_sdk_4.4.1/platform/emlib/src/em_eusart.o
 .debug_ranges  0x00000ff0       0x70 ./gecko_sdk_4.4.1/platform/emlib/src/em_gpio.o
 .debug_ranges  0x00001060      0x138 ./gecko_sdk_4.4.1/platform/emlib/src/em_i2c.o
 .debug_ranges  0x00001198       0xa0 ./gecko_sdk_4.4.1/platform/emlib/src/em_ldma.o
 .debug_ranges  0x00001238       0xa8 ./gecko_sdk_4.4.1/platform/emlib/src/em_usart.o
 .debug_ranges  0x000012e0       0xc0 ./gecko_sdk_4.4.1/platform/peripheral/src/peripheral_sysrtc.o
 .debug_ranges  0x000013a0       0x10 ./gecko_sdk_4.4.1/platform/service/device_init/src/sl_device_init_dcdc_s2.o
 .debug_ranges  0x000013b0       0x10 ./gecko_sdk_4.4.1/platform/service/device_init/src/sl_device_init_emu_s2.o
 .debug_ranges  0x000013c0       0x10 ./gecko_sdk_4.4.1/platform/service/device_init/src/sl_device_init_hfxo_s2.o
 .debug_ranges  0x000013d0       0x10 ./gecko_sdk_4.4.1/platform/service/device_init/src/sl_device_init_lfxo_s2.o
 .debug_ranges  0x000013e0       0x68 ./gecko_sdk_4.4.1/platform/service/device_init/src/sl_device_init_nvic.o
 .debug_ranges  0x00001448       0x48 ./gecko_sdk_4.4.1/platform/service/iostream/src/sl_iostream.o
 .debug_ranges  0x00001490       0xc0 ./gecko_sdk_4.4.1/platform/service/iostream/src/sl_iostream_eusart.o
 .debug_ranges  0x00001550       0x50 ./gecko_sdk_4.4.1/platform/service/iostream/src/sl_iostream_retarget_stdio.o
 .debug_ranges  0x000015a0       0x10 ./gecko_sdk_4.4.1/platform/service/iostream/src/sl_iostream_stdlib_config.o
 .debug_ranges  0x000015b0       0xf8 ./gecko_sdk_4.4.1/platform/service/iostream/src/sl_iostream_uart.o
 .debug_ranges  0x000016a8      0x1a0 ./gecko_sdk_4.4.1/platform/service/sleeptimer/src/sl_sleeptimer.o
 .debug_ranges  0x00001848       0xf8 ./gecko_sdk_4.4.1/platform/service/sleeptimer/src/sl_sleeptimer_hal_sysrtc.o
 .debug_ranges  0x00001940       0x10 ./gecko_sdk_4.4.1/platform/service/system/src/sl_system_init.o
 .debug_ranges  0x00001950       0x10 ./gecko_sdk_4.4.1/platform/service/system/src/sl_system_process_action.o
 .debug_ranges  0x00001960       0x28 ./gecko_sdk_4.4.1/platform/service/udelay/src/sl_udelay.o

.debug_line     0x00000000    0x14dfa
 .debug_line    0x00000000      0x243 ./app.o
 .debug_line    0x00000243      0x55f ./as.o
 .debug_line    0x000007a2      0x103 ./main.o
 .debug_line    0x000008a5      0x560 ./mpl.o
 .debug_line    0x00000e05      0x8f6 ./si.o
 .debug_line    0x000016fb      0x22e ./autogen/sl_board_default_init.o
 .debug_line    0x00001929      0x2fa ./autogen/sl_device_init_clocks.o
 .debug_line    0x00001c23      0x6e1 ./autogen/sl_event_handler.o
 .debug_line    0x00002304      0x2d6 ./autogen/sl_i2cspm_init.o
 .debug_line    0x000025da      0x5fe ./autogen/sl_iostream_init_eusart_instances.o
 .debug_line    0x00002bd8      0x2ba ./autogen/sl_simple_led_instances.o
 .debug_line    0x00002e92      0x4d6 ./gecko_sdk_4.4.1/hardware/board/src/sl_board_control_gpio.o
 .debug_line    0x00003368      0x37a ./gecko_sdk_4.4.1/hardware/board/src/sl_board_init.o
 .debug_line    0x000036e2      0x4e0 ./gecko_sdk_4.4.1/hardware/driver/configuration_over_swo/src/sl_cos.o
 .debug_line    0x00003bc2      0x4ba ./gecko_sdk_4.4.1/hardware/driver/mx25_flash_shutdown/src/sl_mx25_flash_shutdown_usart/sl_mx25_flash_shutdown.o
 .debug_line    0x0000407c      0x33e ./gecko_sdk_4.4.1/platform/Device/SiliconLabs/EFR32MG24/Source/startup_efr32mg24.o
 .debug_line    0x000043ba      0x629 ./gecko_sdk_4.4.1/platform/Device/SiliconLabs/EFR32MG24/Source/system_efr32mg24.o
 .debug_line    0x000049e3       0x82 ./gecko_sdk_4.4.1/platform/common/src/sl_assert.o
 .debug_line    0x00004a65      0x2de ./gecko_sdk_4.4.1/platform/common/toolchain/src/sl_memory.o
 .debug_line    0x00004d43      0x776 ./gecko_sdk_4.4.1/platform/driver/debug/src/sl_debug_swo.o
 .debug_line    0x000054b9      0x5b1 ./gecko_sdk_4.4.1/platform/driver/i2cspm/src/sl_i2cspm.o
 .debug_line    0x00005a6a      0x2a0 ./gecko_sdk_4.4.1/platform/driver/leddrv/src/sl_led.o
 .debug_line    0x00005d0a      0x528 ./gecko_sdk_4.4.1/platform/driver/leddrv/src/sl_simple_led.o
 .debug_line    0x00006232      0xb04 ./gecko_sdk_4.4.1/platform/emdrv/dmadrv/src/dmadrv.o
 .debug_line    0x00006d36     0x330e ./gecko_sdk_4.4.1/platform/emlib/src/em_cmu.o
 .debug_line    0x0000a044      0xaa9 ./gecko_sdk_4.4.1/platform/emlib/src/em_core.o
 .debug_line    0x0000aaed      0xeed ./gecko_sdk_4.4.1/platform/emlib/src/em_emu.o
 .debug_line    0x0000b9da     0x15b0 ./gecko_sdk_4.4.1/platform/emlib/src/em_eusart.o
 .debug_line    0x0000cf8a      0x6c2 ./gecko_sdk_4.4.1/platform/emlib/src/em_gpio.o
 .debug_line    0x0000d64c      0xbdc ./gecko_sdk_4.4.1/platform/emlib/src/em_i2c.o
 .debug_line    0x0000e228      0x7cb ./gecko_sdk_4.4.1/platform/emlib/src/em_ldma.o
 .debug_line    0x0000e9f3      0xc4e ./gecko_sdk_4.4.1/platform/emlib/src/em_usart.o
 .debug_line    0x0000f641      0x81b ./gecko_sdk_4.4.1/platform/peripheral/src/peripheral_sysrtc.o
 .debug_line    0x0000fe5c      0x267 ./gecko_sdk_4.4.1/platform/service/device_init/src/sl_device_init_dcdc_s2.o
 .debug_line    0x000100c3      0x300 ./gecko_sdk_4.4.1/platform/service/device_init/src/sl_device_init_emu_s2.o
 .debug_line    0x000103c3      0x350 ./gecko_sdk_4.4.1/platform/service/device_init/src/sl_device_init_hfxo_s2.o
 .debug_line    0x00010713      0x277 ./gecko_sdk_4.4.1/platform/service/device_init/src/sl_device_init_lfxo_s2.o
 .debug_line    0x0001098a      0x376 ./gecko_sdk_4.4.1/platform/service/device_init/src/sl_device_init_nvic.o
 .debug_line    0x00010d00      0x5c1 ./gecko_sdk_4.4.1/platform/service/iostream/src/sl_iostream.o
 .debug_line    0x000112c1      0x9e4 ./gecko_sdk_4.4.1/platform/service/iostream/src/sl_iostream_eusart.o
 .debug_line    0x00011ca5      0x456 ./gecko_sdk_4.4.1/platform/service/iostream/src/sl_iostream_retarget_stdio.o
 .debug_line    0x000120fb      0x20e ./gecko_sdk_4.4.1/platform/service/iostream/src/sl_iostream_stdlib_config.o
 .debug_line    0x00012309      0xcef ./gecko_sdk_4.4.1/platform/service/iostream/src/sl_iostream_uart.o
 .debug_line    0x00012ff8     0x1127 ./gecko_sdk_4.4.1/platform/service/sleeptimer/src/sl_sleeptimer.o
 .debug_line    0x0001411f      0x7be ./gecko_sdk_4.4.1/platform/service/sleeptimer/src/sl_sleeptimer_hal_sysrtc.o
 .debug_line    0x000148dd       0xdd ./gecko_sdk_4.4.1/platform/service/system/src/sl_system_init.o
 .debug_line    0x000149ba       0xe6 ./gecko_sdk_4.4.1/platform/service/system/src/sl_system_process_action.o
 .debug_line    0x00014aa0      0x2e2 ./gecko_sdk_4.4.1/platform/service/udelay/src/sl_udelay.o
 .debug_line    0x00014d82       0x78 ./gecko_sdk_4.4.1/platform/service/udelay/src/sl_udelay_armv6m_gcc.o

.debug_str      0x00000000     0xea5d
 .debug_str     0x00000000      0x1cd ./app.o
                                0x230 (size before relaxing)
 .debug_str     0x000001cd      0x36c ./as.o
                                0x63f (size before relaxing)
 .debug_str     0x00000539       0x37 ./main.o
                                0x16c (size before relaxing)
 .debug_str     0x00000570       0x55 ./mpl.o
                                0x647 (size before relaxing)
 .debug_str     0x000005c5      0x2d1 ./si.o
                                0x952 (size before relaxing)
 .debug_str     0x00000896       0x4f ./autogen/sl_board_default_init.o
                                0x20c (size before relaxing)
 .debug_str     0x000008e5      0xb1e ./autogen/sl_device_init_clocks.o
                                0xdf8 (size before relaxing)
 .debug_str     0x00001403      0x251 ./autogen/sl_event_handler.o
                                0x42f (size before relaxing)
 .debug_str     0x00001654      0x598 ./autogen/sl_i2cspm_init.o
                                0xa50 (size before relaxing)
 .debug_str     0x00001bec     0x189f ./autogen/sl_iostream_init_eusart_instances.o
                               0x2260 (size before relaxing)
 .debug_str     0x0000348b      0x10d ./autogen/sl_simple_led_instances.o
                                0x3ae (size before relaxing)
 .debug_str     0x00003598      0x42d ./gecko_sdk_4.4.1/hardware/board/src/sl_board_control_gpio.o
                                0x6aa (size before relaxing)
 .debug_str     0x000039c5       0x4d ./gecko_sdk_4.4.1/hardware/board/src/sl_board_init.o
                                0x795 (size before relaxing)
 .debug_str     0x00003a12      0x189 ./gecko_sdk_4.4.1/hardware/driver/configuration_over_swo/src/sl_cos.o
                                0x3d0 (size before relaxing)
 .debug_str     0x00003b9b      0xefb ./gecko_sdk_4.4.1/hardware/driver/mx25_flash_shutdown/src/sl_mx25_flash_shutdown_usart/sl_mx25_flash_shutdown.o
                               0x1d33 (size before relaxing)
 .debug_str     0x00004a96      0x1a4 ./gecko_sdk_4.4.1/platform/Device/SiliconLabs/EFR32MG24/Source/startup_efr32mg24.o
                                0x361 (size before relaxing)
 .debug_str     0x00004c3a      0x669 ./gecko_sdk_4.4.1/platform/Device/SiliconLabs/EFR32MG24/Source/system_efr32mg24.o
                               0x1753 (size before relaxing)
 .debug_str     0x000052a3       0x38 ./gecko_sdk_4.4.1/platform/common/src/sl_assert.o
                                0x165 (size before relaxing)
 .debug_str     0x000052db       0xd2 ./gecko_sdk_4.4.1/platform/common/toolchain/src/sl_memory.o
                                0x29f (size before relaxing)
 .debug_str     0x000053ad      0x336 ./gecko_sdk_4.4.1/platform/driver/debug/src/sl_debug_swo.o
                               0x2161 (size before relaxing)
 .debug_str     0x000056e3       0x88 ./gecko_sdk_4.4.1/platform/driver/i2cspm/src/sl_i2cspm.o
                               0x1a74 (size before relaxing)
 .debug_str     0x0000576b       0x61 ./gecko_sdk_4.4.1/platform/driver/leddrv/src/sl_led.o
                                0x2a2 (size before relaxing)
 .debug_str     0x000057cc       0x6e ./gecko_sdk_4.4.1/platform/driver/leddrv/src/sl_simple_led.o
                               0x172c (size before relaxing)
 .debug_str     0x0000583a      0xcca ./gecko_sdk_4.4.1/platform/emdrv/dmadrv/src/dmadrv.o
                               0x106a (size before relaxing)
 .debug_str     0x00006504     0x42a7 ./gecko_sdk_4.4.1/platform/emlib/src/em_cmu.o
                               0x653f (size before relaxing)
 .debug_str     0x0000a7ab      0x2ed ./gecko_sdk_4.4.1/platform/emlib/src/em_core.o
                                0xb0f (size before relaxing)
 .debug_str     0x0000aa98      0xc74 ./gecko_sdk_4.4.1/platform/emlib/src/em_emu.o
                               0x225f (size before relaxing)
 .debug_str     0x0000b70c      0xb9b ./gecko_sdk_4.4.1/platform/emlib/src/em_eusart.o
                               0x53bb (size before relaxing)
 .debug_str     0x0000c2a7       0xe6 ./gecko_sdk_4.4.1/platform/emlib/src/em_gpio.o
                               0x1695 (size before relaxing)
 .debug_str     0x0000c38d      0x1c8 ./gecko_sdk_4.4.1/platform/emlib/src/em_i2c.o
                                0xcff (size before relaxing)
 .debug_str     0x0000c555       0xb4 ./gecko_sdk_4.4.1/platform/emlib/src/em_ldma.o
                               0x14f3 (size before relaxing)
 .debug_str     0x0000c609      0x344 ./gecko_sdk_4.4.1/platform/emlib/src/em_usart.o
                               0x454a (size before relaxing)
 .debug_str     0x0000c94d      0x686 ./gecko_sdk_4.4.1/platform/peripheral/src/peripheral_sysrtc.o
                                0xad4 (size before relaxing)
 .debug_str     0x0000cfd3       0x4d ./gecko_sdk_4.4.1/platform/service/device_init/src/sl_device_init_dcdc_s2.o
                                0x8cc (size before relaxing)
 .debug_str     0x0000d020       0x55 ./gecko_sdk_4.4.1/platform/service/device_init/src/sl_device_init_emu_s2.o
                                0x923 (size before relaxing)
 .debug_str     0x0000d075      0x503 ./gecko_sdk_4.4.1/platform/service/device_init/src/sl_device_init_hfxo_s2.o
                                0xbdd (size before relaxing)
 .debug_str     0x0000d578      0x1c2 ./gecko_sdk_4.4.1/platform/service/device_init/src/sl_device_init_lfxo_s2.o
                                0x499 (size before relaxing)
 .debug_str     0x0000d73a       0x4a ./gecko_sdk_4.4.1/platform/service/device_init/src/sl_device_init_nvic.o
                                0x805 (size before relaxing)
 .debug_str     0x0000d784      0x15c ./gecko_sdk_4.4.1/platform/service/iostream/src/sl_iostream.o
                                0x3c3 (size before relaxing)
 .debug_str     0x0000d8e0      0x1ab ./gecko_sdk_4.4.1/platform/service/iostream/src/sl_iostream_eusart.o
                               0x3682 (size before relaxing)
 .debug_str     0x0000da8b      0x16e ./gecko_sdk_4.4.1/platform/service/iostream/src/sl_iostream_retarget_stdio.o
                                0x3fb (size before relaxing)
 .debug_str     0x0000dbf9      0x32d ./gecko_sdk_4.4.1/platform/service/iostream/src/sl_iostream_stdlib_config.o
                                0x54a (size before relaxing)
 .debug_str     0x0000df26      0x194 ./gecko_sdk_4.4.1/platform/service/iostream/src/sl_iostream_uart.o
                               0x1061 (size before relaxing)
 .debug_str     0x0000e0ba      0x71d ./gecko_sdk_4.4.1/platform/service/sleeptimer/src/sl_sleeptimer.o
                                0xbc2 (size before relaxing)
 .debug_str     0x0000e7d7      0x145 ./gecko_sdk_4.4.1/platform/service/sleeptimer/src/sl_sleeptimer_hal_sysrtc.o
                               0x15f2 (size before relaxing)
 .debug_str     0x0000e91c       0x40 ./gecko_sdk_4.4.1/platform/service/system/src/sl_system_init.o
                                0x1bb (size before relaxing)
 .debug_str     0x0000e95c       0x4a ./gecko_sdk_4.4.1/platform/service/system/src/sl_system_process_action.o
                                0x1e8 (size before relaxing)
 .debug_str     0x0000e9a6       0x63 ./gecko_sdk_4.4.1/platform/service/udelay/src/sl_udelay.o
                                0x25a (size before relaxing)
 .debug_str     0x0000ea09       0x54 ./gecko_sdk_4.4.1/platform/service/udelay/src/sl_udelay_armv6m_gcc.o
                                 0xa6 (size before relaxing)

.debug_frame    0x00000000     0x3444
 .debug_frame   0x00000000       0x3c ./app.o
 .debug_frame   0x0000003c       0x40 ./as.o
 .debug_frame   0x0000007c       0x28 ./main.o
 .debug_frame   0x000000a4       0x40 ./mpl.o
 .debug_frame   0x000000e4       0xe0 ./si.o
 .debug_frame   0x000001c4       0x20 ./autogen/sl_board_default_init.o
 .debug_frame   0x000001e4       0x28 ./autogen/sl_device_init_clocks.o
 .debug_frame   0x0000020c       0xd4 ./autogen/sl_event_handler.o
 .debug_frame   0x000002e0       0x2c ./autogen/sl_i2cspm_init.o
 .debug_frame   0x0000030c       0x64 ./autogen/sl_iostream_init_eusart_instances.o
 .debug_frame   0x00000370       0x2c ./autogen/sl_simple_led_instances.o
 .debug_frame   0x0000039c      0x110 ./gecko_sdk_4.4.1/hardware/board/src/sl_board_control_gpio.o
 .debug_frame   0x000004ac       0x3c ./gecko_sdk_4.4.1/hardware/board/src/sl_board_init.o
 .debug_frame   0x000004e8       0x84 ./gecko_sdk_4.4.1/hardware/driver/configuration_over_swo/src/sl_cos.o
 .debug_frame   0x0000056c       0x54 ./gecko_sdk_4.4.1/hardware/driver/mx25_flash_shutdown/src/sl_mx25_flash_shutdown_usart/sl_mx25_flash_shutdown.o
 .debug_frame   0x000005c0       0x48 ./gecko_sdk_4.4.1/platform/Device/SiliconLabs/EFR32MG24/Source/startup_efr32mg24.o
 .debug_frame   0x00000608      0x128 ./gecko_sdk_4.4.1/platform/Device/SiliconLabs/EFR32MG24/Source/system_efr32mg24.o
 .debug_frame   0x00000730       0x20 ./gecko_sdk_4.4.1/platform/common/src/sl_assert.o
 .debug_frame   0x00000750       0x40 ./gecko_sdk_4.4.1/platform/common/toolchain/src/sl_memory.o
 .debug_frame   0x00000790       0x9c ./gecko_sdk_4.4.1/platform/driver/debug/src/sl_debug_swo.o
 .debug_frame   0x0000082c       0x68 ./gecko_sdk_4.4.1/platform/driver/i2cspm/src/sl_i2cspm.o
 .debug_frame   0x00000894       0x60 ./gecko_sdk_4.4.1/platform/driver/leddrv/src/sl_led.o
 .debug_frame   0x000008f4       0xb8 ./gecko_sdk_4.4.1/platform/driver/leddrv/src/sl_simple_led.o
 .debug_frame   0x000009ac      0x208 ./gecko_sdk_4.4.1/platform/emdrv/dmadrv/src/dmadrv.o
 .debug_frame   0x00000bb4      0x66c ./gecko_sdk_4.4.1/platform/emlib/src/em_cmu.o
 .debug_frame   0x00001220      0x250 ./gecko_sdk_4.4.1/platform/emlib/src/em_core.o
 .debug_frame   0x00001470      0x30c ./gecko_sdk_4.4.1/platform/emlib/src/em_emu.o
 .debug_frame   0x0000177c      0x2a4 ./gecko_sdk_4.4.1/platform/emlib/src/em_eusart.o
 .debug_frame   0x00001a20      0x168 ./gecko_sdk_4.4.1/platform/emlib/src/em_gpio.o
 .debug_frame   0x00001b88       0xec ./gecko_sdk_4.4.1/platform/emlib/src/em_i2c.o
 .debug_frame   0x00001c74       0xe0 ./gecko_sdk_4.4.1/platform/emlib/src/em_ldma.o
 .debug_frame   0x00001d54      0x1ec ./gecko_sdk_4.4.1/platform/emlib/src/em_usart.o
 .debug_frame   0x00001f40      0x1d8 ./gecko_sdk_4.4.1/platform/peripheral/src/peripheral_sysrtc.o
 .debug_frame   0x00002118       0x28 ./gecko_sdk_4.4.1/platform/service/device_init/src/sl_device_init_dcdc_s2.o
 .debug_frame   0x00002140       0x2c ./gecko_sdk_4.4.1/platform/service/device_init/src/sl_device_init_emu_s2.o
 .debug_frame   0x0000216c       0x34 ./gecko_sdk_4.4.1/platform/service/device_init/src/sl_device_init_hfxo_s2.o
 .debug_frame   0x000021a0       0x30 ./gecko_sdk_4.4.1/platform/service/device_init/src/sl_device_init_lfxo_s2.o
 .debug_frame   0x000021d0       0x28 ./gecko_sdk_4.4.1/platform/service/device_init/src/sl_device_init_nvic.o
 .debug_frame   0x000021f8       0xfc ./gecko_sdk_4.4.1/platform/service/iostream/src/sl_iostream.o
 .debug_frame   0x000022f4       0xa4 ./gecko_sdk_4.4.1/platform/service/iostream/src/sl_iostream_eusart.o
 .debug_frame   0x00002398       0xb0 ./gecko_sdk_4.4.1/platform/service/iostream/src/sl_iostream_retarget_stdio.o
 .debug_frame   0x00002448       0x20 ./gecko_sdk_4.4.1/platform/service/iostream/src/sl_iostream_stdlib_config.o
 .debug_frame   0x00002468      0x110 ./gecko_sdk_4.4.1/platform/service/iostream/src/sl_iostream_uart.o
 .debug_frame   0x00002578      0x3ac ./gecko_sdk_4.4.1/platform/service/sleeptimer/src/sl_sleeptimer.o
 .debug_frame   0x00002924      0x160 ./gecko_sdk_4.4.1/platform/service/sleeptimer/src/sl_sleeptimer_hal_sysrtc.o
 .debug_frame   0x00002a84       0x2c ./gecko_sdk_4.4.1/platform/service/system/src/sl_system_init.o
 .debug_frame   0x00002ab0       0x2c ./gecko_sdk_4.4.1/platform/service/system/src/sl_system_process_action.o
 .debug_frame   0x00002adc       0x38 ./gecko_sdk_4.4.1/platform/service/udelay/src/sl_udelay.o
 .debug_frame   0x00002b14       0x2c c:/siliconlabs/simplicitystudio/v5/developer/toolchains/gnu_arm/12.2.rel1_2023.7/bin/../lib/gcc/arm-none-eabi/12.2.1/thumb/v8-m.main+fp/hard\libgcc.a(_aeabi_uldivmod.o)
 .debug_frame   0x00002b40       0x38 c:/siliconlabs/simplicitystudio/v5/developer/toolchains/gnu_arm/12.2.rel1_2023.7/bin/../lib/gcc/arm-none-eabi/12.2.1/thumb/v8-m.main+fp/hard\libgcc.a(_udivmoddi4.o)
 .debug_frame   0x00002b78       0x28 c:/siliconlabs/simplicitystudio/v5/developer/toolchains/gnu_arm/12.2.rel1_2023.7/bin/../lib/gcc/arm-none-eabi/12.2.1/thumb/v8-m.main+fp/hard\libc_nano.a(libc_a-exit.o)
 .debug_frame   0x00002ba0      0x144 c:/siliconlabs/simplicitystudio/v5/developer/toolchains/gnu_arm/12.2.rel1_2023.7/bin/../lib/gcc/arm-none-eabi/12.2.1/thumb/v8-m.main+fp/hard\libc_nano.a(libc_a-findfp.o)
 .debug_frame   0x00002ce4       0x34 c:/siliconlabs/simplicitystudio/v5/developer/toolchains/gnu_arm/12.2.rel1_2023.7/bin/../lib/gcc/arm-none-eabi/12.2.1/thumb/v8-m.main+fp/hard\libc_nano.a(libc_a-fwalk.o)
 .debug_frame   0x00002d18       0x6c c:/siliconlabs/simplicitystudio/v5/developer/toolchains/gnu_arm/12.2.rel1_2023.7/bin/../lib/gcc/arm-none-eabi/12.2.1/thumb/v8-m.main+fp/hard\libc_nano.a(libc_a-printf.o)
 .debug_frame   0x00002d84       0x3c c:/siliconlabs/simplicitystudio/v5/developer/toolchains/gnu_arm/12.2.rel1_2023.7/bin/../lib/gcc/arm-none-eabi/12.2.1/thumb/v8-m.main+fp/hard\libc_nano.a(libc_a-puts.o)
 .debug_frame   0x00002dc0       0x38 c:/siliconlabs/simplicitystudio/v5/developer/toolchains/gnu_arm/12.2.rel1_2023.7/bin/../lib/gcc/arm-none-eabi/12.2.1/thumb/v8-m.main+fp/hard\libc_nano.a(libc_a-setvbuf.o)
 .debug_frame   0x00002df8       0x88 c:/siliconlabs/simplicitystudio/v5/developer/toolchains/gnu_arm/12.2.rel1_2023.7/bin/../lib/gcc/arm-none-eabi/12.2.1/thumb/v8-m.main+fp/hard\libc_nano.a(libc_a-stdio.o)
 .debug_frame   0x00002e80       0x40 c:/siliconlabs/simplicitystudio/v5/developer/toolchains/gnu_arm/12.2.rel1_2023.7/bin/../lib/gcc/arm-none-eabi/12.2.1/thumb/v8-m.main+fp/hard\libc_nano.a(libc_a-wbuf.o)
 .debug_frame   0x00002ec0       0x2c c:/siliconlabs/simplicitystudio/v5/developer/toolchains/gnu_arm/12.2.rel1_2023.7/bin/../lib/gcc/arm-none-eabi/12.2.1/thumb/v8-m.main+fp/hard\libc_nano.a(libc_a-wsetup.o)
 .debug_frame   0x00002eec       0x20 c:/siliconlabs/simplicitystudio/v5/developer/toolchains/gnu_arm/12.2.rel1_2023.7/bin/../lib/gcc/arm-none-eabi/12.2.1/thumb/v8-m.main+fp/hard\libc_nano.a(libc_a-memset.o)
 .debug_frame   0x00002f0c       0x2c c:/siliconlabs/simplicitystudio/v5/developer/toolchains/gnu_arm/12.2.rel1_2023.7/bin/../lib/gcc/arm-none-eabi/12.2.1/thumb/v8-m.main+fp/hard\libc_nano.a(libc_a-closer.o)
 .debug_frame   0x00002f38       0x38 c:/siliconlabs/simplicitystudio/v5/developer/toolchains/gnu_arm/12.2.rel1_2023.7/bin/../lib/gcc/arm-none-eabi/12.2.1/thumb/v8-m.main+fp/hard\libc_nano.a(libc_a-reent.o)
 .debug_frame   0x00002f70       0x2c c:/siliconlabs/simplicitystudio/v5/developer/toolchains/gnu_arm/12.2.rel1_2023.7/bin/../lib/gcc/arm-none-eabi/12.2.1/thumb/v8-m.main+fp/hard\libc_nano.a(libc_a-lseekr.o)
 .debug_frame   0x00002f9c       0x2c c:/siliconlabs/simplicitystudio/v5/developer/toolchains/gnu_arm/12.2.rel1_2023.7/bin/../lib/gcc/arm-none-eabi/12.2.1/thumb/v8-m.main+fp/hard\libc_nano.a(libc_a-readr.o)
 .debug_frame   0x00002fc8       0x2c c:/siliconlabs/simplicitystudio/v5/developer/toolchains/gnu_arm/12.2.rel1_2023.7/bin/../lib/gcc/arm-none-eabi/12.2.1/thumb/v8-m.main+fp/hard\libc_nano.a(libc_a-writer.o)
 .debug_frame   0x00002ff4       0x2c c:/siliconlabs/simplicitystudio/v5/developer/toolchains/gnu_arm/12.2.rel1_2023.7/bin/../lib/gcc/arm-none-eabi/12.2.1/thumb/v8-m.main+fp/hard\libc_nano.a(libc_a-init.o)
 .debug_frame   0x00003020       0xb0 c:/siliconlabs/simplicitystudio/v5/developer/toolchains/gnu_arm/12.2.rel1_2023.7/bin/../lib/gcc/arm-none-eabi/12.2.1/thumb/v8-m.main+fp/hard\libc_nano.a(libc_a-lock.o)
 .debug_frame   0x000030d0       0x28 c:/siliconlabs/simplicitystudio/v5/developer/toolchains/gnu_arm/12.2.rel1_2023.7/bin/../lib/gcc/arm-none-eabi/12.2.1/thumb/v8-m.main+fp/hard\libc_nano.a(libc_a-memcpy-stub.o)
 .debug_frame   0x000030f8       0x38 c:/siliconlabs/simplicitystudio/v5/developer/toolchains/gnu_arm/12.2.rel1_2023.7/bin/../lib/gcc/arm-none-eabi/12.2.1/thumb/v8-m.main+fp/hard\libc_nano.a(libc_a-freer.o)
 .debug_frame   0x00003130       0x30 c:/siliconlabs/simplicitystudio/v5/developer/toolchains/gnu_arm/12.2.rel1_2023.7/bin/../lib/gcc/arm-none-eabi/12.2.1/thumb/v8-m.main+fp/hard\libc_nano.a(libc_a-malloc.o)
 .debug_frame   0x00003160       0x4c c:/siliconlabs/simplicitystudio/v5/developer/toolchains/gnu_arm/12.2.rel1_2023.7/bin/../lib/gcc/arm-none-eabi/12.2.1/thumb/v8-m.main+fp/hard\libc_nano.a(libc_a-mallocr.o)
 .debug_frame   0x000031ac       0x30 c:/siliconlabs/simplicitystudio/v5/developer/toolchains/gnu_arm/12.2.rel1_2023.7/bin/../lib/gcc/arm-none-eabi/12.2.1/thumb/v8-m.main+fp/hard\libc_nano.a(libc_a-mlock.o)
 .debug_frame   0x000031dc       0xa8 c:/siliconlabs/simplicitystudio/v5/developer/toolchains/gnu_arm/12.2.rel1_2023.7/bin/../lib/gcc/arm-none-eabi/12.2.1/thumb/v8-m.main+fp/hard\libc_nano.a(libc_a-nano-vfprintf.o)
 .debug_frame   0x00003284       0x60 c:/siliconlabs/simplicitystudio/v5/developer/toolchains/gnu_arm/12.2.rel1_2023.7/bin/../lib/gcc/arm-none-eabi/12.2.1/thumb/v8-m.main+fp/hard\libc_nano.a(libc_a-nano-vfprintf_i.o)
 .debug_frame   0x000032e4       0x5c c:/siliconlabs/simplicitystudio/v5/developer/toolchains/gnu_arm/12.2.rel1_2023.7/bin/../lib/gcc/arm-none-eabi/12.2.1/thumb/v8-m.main+fp/hard\libc_nano.a(libc_a-fflush.o)
 .debug_frame   0x00003340       0x58 c:/siliconlabs/simplicitystudio/v5/developer/toolchains/gnu_arm/12.2.rel1_2023.7/bin/../lib/gcc/arm-none-eabi/12.2.1/thumb/v8-m.main+fp/hard\libc_nano.a(libc_a-makebuf.o)
 .debug_frame   0x00003398       0x2c c:/siliconlabs/simplicitystudio/v5/developer/toolchains/gnu_arm/12.2.rel1_2023.7/bin/../lib/gcc/arm-none-eabi/12.2.1/thumb/v8-m.main+fp/hard\libc_nano.a(libc_a-fstatr.o)
 .debug_frame   0x000033c4       0x2c c:/siliconlabs/simplicitystudio/v5/developer/toolchains/gnu_arm/12.2.rel1_2023.7/bin/../lib/gcc/arm-none-eabi/12.2.1/thumb/v8-m.main+fp/hard\libc_nano.a(libc_a-isattyr.o)
 .debug_frame   0x000033f0       0x2c c:/siliconlabs/simplicitystudio/v5/developer/toolchains/gnu_arm/12.2.rel1_2023.7/bin/../lib/gcc/arm-none-eabi/12.2.1/thumb/v8-m.main+fp/hard\libc_nano.a(libc_a-sbrkr.o)
 .debug_frame   0x0000341c       0x28 c:/siliconlabs/simplicitystudio/v5/developer/toolchains/gnu_arm/12.2.rel1_2023.7/bin/../lib/gcc/arm-none-eabi/12.2.1/thumb/v8-m.main+fp/hard\libc_nano.a(libc_a-memchr-stub.o)
